(lp0
(i__main__
Node
p1
(dp2
S'wnetid'
p3
Vn02992211
p4
sS'root'
p5
I00
sS'children'
p6
NsS'all_categories'
p7
(lp8
g4
asba(i__main__
Node
p9
(dp10
g3
Vn04550184
p11
sg5
I00
sg6
Nsg7
(lp12
g11
asba(i__main__
Node
p13
(dp14
g3
Vn09246464
p15
sg5
I00
sg6
Nsg7
(lp16
g15
asba(i__main__
Node
p17
(dp18
g3
Vn00033020
p19
sg5
I00
sg6
(lp20
(i__main__
Node
p21
(dp22
g3
Vn06794110
p23
sg5
I00
sg6
Nsg7
(lp24
g23
asba(i__main__
Node
p25
(dp26
g3
Vn06874185
p27
sg5
I00
sg6
Nsg7
(lp28
g27
asbasg7
(lp29
g23
ag27
asba(i__main__
Node
p30
(dp31
g3
Vn03384352
p32
sg5
I00
sg6
Nsg7
(lp33
g32
asba(i__main__
Node
p34
(dp35
g3
Vn02095570
p36
sg5
I00
sg6
Nsg7
(lp37
g36
asba(i__main__
Node
p38
(dp39
g3
Vn02814860
p40
sg5
I00
sg6
Nsg7
(lp41
g40
asba(i__main__
Node
p42
(dp43
g3
Vn01689811
p44
sg5
I00
sg6
Nsg7
(lp45
g44
asba(i__main__
Node
p46
(dp47
g3
Vn02481823
p48
sg5
I00
sg6
Nsg7
(lp49
g48
asba(i__main__
Node
p50
(dp51
g3
Vn03682487
p52
sg5
I00
sg6
(lp53
(i__main__
Node
p54
(dp55
g3
Vn03075370
p56
sg5
I00
sg6
Nsg7
(lp57
g56
asba(i__main__
Node
p58
(dp59
g3
Vn03874599
p60
sg5
I00
sg6
Nsg7
(lp61
g60
asbasg7
(lp62
g56
ag60
asba(i__main__
Node
p63
(dp64
g3
Vn00020827
p65
sg5
I00
sg6
(lp66
(i__main__
Node
p67
(dp68
g3
Vn00019613
p69
sg5
I00
sg6
(lp70
(i__main__
Node
p71
(dp72
g3
Vn07881800
p73
sg5
I00
sg6
(lp74
(i__main__
Node
p75
(dp76
g3
Vn07884567
p77
sg5
I00
sg6
(lp78
(i__main__
Node
p79
(dp80
g3
Vn07930554
p81
sg5
I00
sg6
(lp82
(i__main__
Node
p83
(dp84
g3
Vn07930864
p85
sg5
I00
sg6
Nsg7
(lp86
g85
asba(i__main__
Node
p87
(dp88
g3
Vn07932039
p89
sg5
I00
sg6
Nsg7
(lp90
g89
asbasg7
(lp91
g85
ag89
asba(i__main__
Node
p92
(dp93
g3
Vn07892512
p94
sg5
I00
sg6
Nsg7
(lp95
g94
asbasg7
(lp96
g94
ag85
ag89
asba(i__main__
Node
p97
(dp98
g3
Vn07920052
p99
sg5
I00
sg6
Nsg7
(lp100
g99
asbasg7
(lp101
g99
ag94
ag85
ag89
asba(i__main__
Node
p102
(dp103
g3
Vn15075141
p104
sg5
I00
sg6
Nsg7
(lp105
g104
asbasg7
(lp106
g104
ag99
ag94
ag85
ag89
asba(i__main__
Node
p107
(dp108
g3
Vn00020090
p109
sg5
I00
sg6
(lp110
(i__main__
Node
p111
(dp112
g3
Vn00021265
p113
sg5
I00
sg6
(lp114
g71
a(i__main__
Node
p115
(dp116
g3
Vn07566340
p117
sg5
I00
sg6
(lp118
(i__main__
Node
p119
(dp120
g3
Vn07566863
p121
sg5
I00
sg6
(lp122
(i__main__
Node
p123
(dp124
g3
Vn07679356
p125
sg5
I00
sg6
(lp126
(i__main__
Node
p127
(dp128
g3
Vn07683786
p129
sg5
I00
sg6
(lp130
(i__main__
Node
p131
(dp132
g3
Vn07684084
p133
sg5
I00
sg6
Nsg7
(lp134
g133
asba(i__main__
Node
p135
(dp136
g3
Vn07871810
p137
sg5
I00
sg6
Nsg7
(lp138
g137
asbasg7
(lp139
g133
ag137
asba(i__main__
Node
p140
(dp141
g3
Vn07693725
p142
sg5
I00
sg6
Nsg7
(lp143
g142
asba(i__main__
Node
p144
(dp145
g3
Vn07695742
p146
sg5
I00
sg6
Nsg7
(lp147
g146
asbasg7
(lp148
g142
ag146
ag133
ag137
asba(i__main__
Node
p149
(dp150
g3
Vn07711569
p151
sg5
I00
sg6
Nsg7
(lp152
g151
asbasg7
(lp153
g151
ag142
ag146
ag133
ag137
asba(i__main__
Node
p154
(dp155
g3
Vn07860988
p156
sg5
I00
sg6
Nsg7
(lp157
g156
asba(i__main__
Node
p158
(dp159
g3
Vn07810907
p160
sg5
I00
sg6
(lp161
(i__main__
Node
p162
(dp163
g3
Vn07829412
p164
sg5
I00
sg6
(lp165
(i__main__
Node
p166
(dp167
g3
Vn07836838
p168
sg5
I00
sg6
Nsg7
(lp169
g168
asba(i__main__
Node
p170
(dp171
g3
Vn07831146
p172
sg5
I00
sg6
Nsg7
(lp173
g172
asbasg7
(lp174
g168
ag172
asba(i__main__
Node
p175
(dp176
g3
Vn07583066
p177
sg5
I00
sg6
Nsg7
(lp178
g177
asbasg7
(lp179
g177
ag168
ag172
asbasg7
(lp180
g156
ag151
ag177
ag142
ag146
ag168
ag172
ag133
ag137
asba(i__main__
Node
p181
(dp182
g3
Vn07570720
p183
sg5
I00
sg6
(lp184
(i__main__
Node
p185
(dp186
g3
Vn07556970
p187
sg5
I00
sg6
(lp188
(i__main__
Node
p189
(dp190
g3
Vn07609840
p191
sg5
I00
sg6
(lp192
(i__main__
Node
p193
(dp194
g3
Vn07611358
p195
sg5
I00
sg6
(lp196
(i__main__
Node
p197
(dp198
g3
Vn07614500
p199
sg5
I00
sg6
Nsg7
(lp200
g199
asba(i__main__
Node
p201
(dp202
g3
Vn07615774
p203
sg5
I00
sg6
Nsg7
(lp204
g203
asbasg7
(lp205
g199
ag203
asba(i__main__
Node
p206
(dp207
g3
Vn07613480
p208
sg5
I00
sg6
Nsg7
(lp209
g208
asbasg7
(lp210
g208
ag199
ag203
asba(i__main__
Node
p211
(dp212
g3
Vn07579787
p213
sg5
I00
sg6
Nsg7
(lp214
g213
asbasg7
(lp215
g213
ag208
ag199
ag203
asba(i__main__
Node
p216
(dp217
g3
Vn07557434
p218
sg5
I00
sg6
(lp219
(i__main__
Node
p220
(dp221
g3
Vn07880968
p222
sg5
I00
sg6
Nsg7
(lp223
g222
asbag135
a(i__main__
Node
p224
(dp225
g3
Vn07873807
p226
sg5
I00
sg6
Nsg7
(lp227
g226
asba(i__main__
Node
p228
(dp229
g3
Vn07875152
p230
sg5
I00
sg6
Nsg7
(lp231
g230
asba(i__main__
Node
p232
(dp233
g3
Vn07695965
p234
sg5
I00
sg6
(lp235
(i__main__
Node
p236
(dp237
g3
Vn07697537
p238
sg5
I00
sg6
Nsg7
(lp239
g238
asba(i__main__
Node
p240
(dp241
g3
Vn07697313
p242
sg5
I00
sg6
Nsg7
(lp243
g242
asbasg7
(lp244
g238
ag242
asba(i__main__
Node
p245
(dp246
g3
Vn07584110
p247
sg5
I00
sg6
Nsg7
(lp248
g247
asba(i__main__
Node
p249
(dp250
g3
Vn07590611
p251
sg5
I00
sg6
Nsg7
(lp252
g251
asbasg7
(lp253
g222
ag137
ag226
ag230
ag247
ag251
ag238
ag242
asbasg7
(lp254
g213
ag222
ag137
ag226
ag230
ag247
ag251
ag208
ag238
ag242
ag199
ag203
asba(i__main__
Node
p255
(dp256
g3
Vn07565083
p257
sg5
I00
sg6
Nsg7
(lp258
g257
asba(i__main__
Node
p259
(dp260
g3
Vn07802026
p261
sg5
I00
sg6
Nsg7
(lp262
g261
asbasg7
(lp263
g257
ag261
ag99
ag156
ag94
ag151
ag177
ag213
ag222
ag137
ag226
ag230
ag247
ag251
ag85
ag89
ag142
ag146
ag168
ag172
ag208
ag238
ag242
ag133
ag199
ag203
asba(i__main__
Node
p264
(dp265
g3
Vn03247620
p266
sg5
I00
sg6
(lp267
g75
a(i__main__
Node
p268
(dp269
g3
Vn03314780
p270
sg5
I00
sg6
Nsg7
(lp271
g270
asbasg7
(lp272
g270
ag94
ag85
ag89
asbasg7
(lp273
g257
ag261
ag270
ag99
ag156
ag94
ag151
ag177
ag213
ag222
ag137
ag226
ag230
ag247
ag251
ag85
ag89
ag142
ag146
ag168
ag172
ag208
ag238
ag242
ag133
ag199
ag203
asba(i__main__
Node
p274
(dp275
g3
Vn07555863
p276
sg5
I00
sg6
(lp277
(i__main__
Node
p278
(dp279
g3
Vn07705711
p280
sg5
I00
sg6
(lp281
(i__main__
Node
p282
(dp283
g3
Vn07705931
p284
sg5
I00
sg6
(lp285
(i__main__
Node
p286
(dp287
g3
Vn07753592
p288
sg5
I00
sg6
Nsg7
(lp289
g288
asba(i__main__
Node
p290
(dp291
g3
Vn07747055
p292
sg5
I00
sg6
(lp293
(i__main__
Node
p294
(dp295
g3
Vn07749582
p296
sg5
I00
sg6
Nsg7
(lp297
g296
asba(i__main__
Node
p298
(dp299
g3
Vn07747607
p300
sg5
I00
sg6
Nsg7
(lp301
g300
asbasg7
(lp302
g296
ag300
asba(i__main__
Node
p303
(dp304
g3
Vn07760859
p305
sg5
I00
sg6
Nsg7
(lp306
g305
asba(i__main__
Node
p307
(dp308
g3
Vn07753113
p309
sg5
I00
sg6
Nsg7
(lp310
g309
asba(i__main__
Node
p311
(dp312
g3
Vn07754684
p313
sg5
I00
sg6
Nsg7
(lp314
g313
asba(i__main__
Node
p315
(dp316
g3
Vn07753275
p317
sg5
I00
sg6
Nsg7
(lp318
g317
asba(i__main__
Node
p319
(dp320
g3
Vn07768694
p321
sg5
I00
sg6
Nsg7
(lp322
g321
asba(i__main__
Node
p323
(dp324
g3
Vn07745940
p325
sg5
I00
sg6
Nsg7
(lp326
g325
asba(i__main__
Node
p327
(dp328
g3
Vn07742313
p329
sg5
I00
sg6
Nsg7
(lp330
g329
asbasg7
(lp331
g288
ag305
ag309
ag313
ag317
ag321
ag325
ag329
ag296
ag300
asba(i__main__
Node
p332
(dp333
g3
Vn07707451
p334
sg5
I00
sg6
(lp335
(i__main__
Node
p336
(dp337
g3
Vn07718747
p338
sg5
I00
sg6
Nsg7
(lp339
g338
asba(i__main__
Node
p340
(dp341
g3
Vn07730033
p342
sg5
I00
sg6
Nsg7
(lp343
g342
asba(i__main__
Node
p344
(dp345
g3
Vn07713395
p346
sg5
I00
sg6
(lp347
(i__main__
Node
p348
(dp349
g3
Vn07714990
p350
sg5
I00
sg6
Nsg7
(lp351
g350
asba(i__main__
Node
p352
(dp353
g3
Vn07715103
p354
sg5
I00
sg6
Nsg7
(lp355
g354
asba(i__main__
Node
p356
(dp357
g3
Vn07714571
p358
sg5
I00
sg6
Nsg7
(lp359
g358
asbasg7
(lp360
g350
ag354
ag358
asba(i__main__
Node
p361
(dp362
g3
Vn07718472
p363
sg5
I00
sg6
Nsg7
(lp364
g363
asba(i__main__
Node
p365
(dp366
g3
Vn07734744
p367
sg5
I00
sg6
Nsg7
(lp368
g367
asba(i__main__
Node
p369
(dp370
g3
Vn07710007
p371
sg5
I00
sg6
(lp372
g149
a(i__main__
Node
p373
(dp374
g3
Vn07720875
p375
sg5
I00
sg6
Nsg7
(lp376
g375
asbasg7
(lp377
g151
ag375
asba(i__main__
Node
p378
(dp379
g3
Vn07715561
p380
sg5
I00
sg6
(lp381
(i__main__
Node
p382
(dp383
g3
Vn07715721
p384
sg5
I00
sg6
(lp385
(i__main__
Node
p386
(dp387
g3
Vn07716906
p388
sg5
I00
sg6
Nsg7
(lp389
g388
asba(i__main__
Node
p390
(dp391
g3
Vn07716358
p392
sg5
I00
sg6
Nsg7
(lp393
g392
asbasg7
(lp394
g388
ag392
asba(i__main__
Node
p395
(dp396
g3
Vn07717070
p397
sg5
I00
sg6
(lp398
(i__main__
Node
p399
(dp400
g3
Vn07717410
p401
sg5
I00
sg6
Nsg7
(lp402
g401
asba(i__main__
Node
p403
(dp404
g3
Vn07717556
p405
sg5
I00
sg6
Nsg7
(lp406
g405
asbasg7
(lp407
g401
ag405
asbasg7
(lp408
g388
ag392
ag401
ag405
asbasg7
(lp409
g338
ag342
ag363
ag367
ag350
ag354
ag358
ag151
ag375
ag388
ag392
ag401
ag405
asbasg7
(lp410
g288
ag305
ag309
ag313
ag317
ag321
ag325
ag329
ag338
ag342
ag363
ag367
ag296
ag300
ag350
ag354
ag358
ag151
ag375
ag388
ag392
ag401
ag405
asbag123
asg7
(lp411
g142
ag146
ag288
ag305
ag309
ag313
ag317
ag321
ag325
ag329
ag338
ag342
ag363
ag367
ag133
ag137
ag296
ag300
ag350
ag354
ag358
ag151
ag375
ag388
ag392
ag401
ag405
asbasg7
(lp412
g104
ag99
ag257
ag261
ag270
ag142
ag146
ag94
ag156
ag288
ag305
ag309
ag313
ag317
ag321
ag325
ag329
ag338
ag342
ag363
ag367
ag133
ag137
ag85
ag89
ag151
ag177
ag213
ag222
ag226
ag230
ag247
ag251
ag296
ag300
ag350
ag354
ag358
ag375
ag168
ag172
ag208
ag238
ag242
ag388
ag392
ag401
ag405
ag199
ag203
asba(i__main__
Node
p413
(dp414
g3
Vn04136333
p415
sg5
I00
sg6
Nsg7
(lp416
g415
asba(i__main__
Node
p417
(dp418
g3
Vn03706229
p419
sg5
I00
sg6
Nsg7
(lp420
g419
asba(i__main__
Node
p421
(dp422
g3
Vn03459775
p423
sg5
I00
sg6
Nsg7
(lp424
g423
asba(i__main__
Node
p425
(dp426
g3
Vn04483307
p427
sg5
I00
sg6
Nsg7
(lp428
g427
asba(i__main__
Node
p429
(dp430
g3
Vn01514859
p431
sg5
I00
sg6
Nsg7
(lp432
g431
asba(i__main__
Node
p433
(dp434
g3
Vn03476684
p435
sg5
I00
sg6
Nsg7
(lp436
g435
asba(i__main__
Node
p437
(dp438
g3
Vn03603722
p439
sg5
I00
sg6
(lp440
(i__main__
Node
p441
(dp442
g3
Vn04560804
p443
sg5
I00
sg6
Nsg7
(lp444
g443
asba(i__main__
Node
p445
(dp446
g3
Vn04579145
p447
sg5
I00
sg6
Nsg7
(lp448
g447
asbasg7
(lp449
g443
ag447
asba(i__main__
Node
p450
(dp451
g3
Vn02062744
p452
sg5
I00
sg6
(lp453
(i__main__
Node
p454
(dp455
g3
Vn02066245
p456
sg5
I00
sg6
Nsg7
(lp457
g456
asba(i__main__
Node
p458
(dp459
g3
Vn02071294
p460
sg5
I00
sg6
Nsg7
(lp461
g460
asbasg7
(lp462
g456
ag460
asba(i__main__
Node
p463
(dp464
g3
Vn01773797
p465
sg5
I00
sg6
Nsg7
(lp466
g465
asba(i__main__
Node
p467
(dp468
g3
Vn01773549
p469
sg5
I00
sg6
Nsg7
(lp470
g469
asba(i__main__
Node
p471
(dp472
g3
Vn02124623
p473
sg5
I00
sg6
(lp474
(i__main__
Node
p475
(dp476
g3
Vn02125311
p477
sg5
I00
sg6
Nsg7
(lp478
g477
asba(i__main__
Node
p479
(dp480
g3
Vn02127052
p481
sg5
I00
sg6
Nsg7
(lp482
g481
asbasg7
(lp483
g477
ag481
asba(i__main__
Node
p484
(dp485
g3
Vn03584829
p486
sg5
I00
sg6
Nsg7
(lp487
g486
asba(i__main__
Node
p488
(dp489
g3
Vn02389026
p490
sg5
I00
sg6
Nsg7
(lp491
g490
asba(i__main__
Node
p492
(dp493
g3
Vn04357314
p494
sg5
I00
sg6
Nsg7
(lp495
g494
asba(i__main__
Node
p496
(dp497
g3
Vn03393324
p498
sg5
I00
sg6
(lp499
(i__main__
Node
p500
(dp501
g3
Vn02672831
p502
sg5
I00
sg6
Nsg7
(lp503
g502
asba(i__main__
Node
p504
(dp505
g3
Vn03494278
p506
sg5
I00
sg6
Nsg7
(lp507
g506
asbasg7
(lp508
g502
ag506
asbag249
a(i__main__
Node
p509
(dp510
g3
Vn03339643
p511
sg5
I00
sg6
(lp512
(i__main__
Node
p513
(dp514
g3
Vn03843555
p515
sg5
I00
sg6
Nsg7
(lp516
g515
asba(i__main__
Node
p517
(dp518
g3
Vn04332243
p519
sg5
I00
sg6
Nsg7
(lp520
g519
asbasg7
(lp521
g515
ag519
asba(i__main__
Node
p522
(dp523
g3
Vn01582220
p524
sg5
I00
sg6
Nsg7
(lp525
g524
asba(i__main__
Node
p526
(dp527
g3
Vn02022684
p528
sg5
I00
sg6
(lp529
(i__main__
Node
p530
(dp531
g3
Vn02037110
p532
sg5
I00
sg6
Nsg7
(lp533
g532
asba(i__main__
Node
p534
(dp535
g3
Vn02026059
p536
sg5
I00
sg6
(lp537
(i__main__
Node
p538
(dp539
g3
Vn02027492
p540
sg5
I00
sg6
Nsg7
(lp541
g540
asba(i__main__
Node
p542
(dp543
g3
Vn02028035
p544
sg5
I00
sg6
Nsg7
(lp545
g544
asbasg7
(lp546
g540
ag544
asba(i__main__
Node
p547
(dp548
g3
Vn02033041
p549
sg5
I00
sg6
Nsg7
(lp550
g549
asba(i__main__
Node
p551
(dp552
g3
Vn02025239
p553
sg5
I00
sg6
Nsg7
(lp554
g553
asbasg7
(lp555
g532
ag549
ag553
ag540
ag544
asba(i__main__
Node
p556
(dp557
g3
Vn02507649
p558
sg5
I00
sg6
(lp559
(i__main__
Node
p560
(dp561
g3
Vn02510455
p562
sg5
I00
sg6
Nsg7
(lp563
g562
asba(i__main__
Node
p564
(dp565
g3
Vn02509815
p566
sg5
I00
sg6
Nsg7
(lp567
g566
asbasg7
(lp568
g562
ag566
asba(i__main__
Node
p569
(dp570
g3
Vn04263760
p571
sg5
I00
sg6
(lp572
(i__main__
Node
p573
(dp574
g3
Vn03636248
p575
sg5
I00
sg6
(lp576
(i__main__
Node
p577
(dp578
g3
Vn02948072
p579
sg5
I00
sg6
Nsg7
(lp580
g579
asba(i__main__
Node
p581
(dp582
g3
Vn04286575
p583
sg5
I00
sg6
Nsg7
(lp584
g583
asba(i__main__
Node
p585
(dp586
g3
Vn03590841
p587
sg5
I00
sg6
Nsg7
(lp588
g587
asbasg7
(lp589
g579
ag583
ag587
asba(i__main__
Node
p590
(dp591
g3
Vn04456115
p592
sg5
I00
sg6
Nsg7
(lp593
g592
asbasg7
(lp594
g592
ag579
ag583
ag587
asba(i__main__
Node
p595
(dp596
g3
Vn02101388
p597
sg5
I00
sg6
Nsg7
(lp598
g597
asba(i__main__
Node
p599
(dp600
g3
Vn01728572
p601
sg5
I00
sg6
Nsg7
(lp602
g601
asba(i__main__
Node
p603
(dp604
g3
Vn03995372
p605
sg5
I00
sg6
Nsg7
(lp606
g605
asba(i__main__
Node
p607
(dp608
g3
Vn02917067
p609
sg5
I00
sg6
Nsg7
(lp610
g609
asba(i__main__
Node
p611
(dp612
g3
Vn04254680
p613
sg5
I00
sg6
Nsg7
(lp614
g613
asbag399
a(i__main__
Node
p615
(dp616
g3
Vn02117135
p617
sg5
I00
sg6
Nsg7
(lp618
g617
asba(i__main__
Node
p619
(dp620
g3
Vn02119789
p621
sg5
I00
sg6
Nsg7
(lp622
g621
asba(i__main__
Node
p623
(dp624
g3
Vn03096960
p625
sg5
I00
sg6
(lp626
(i__main__
Node
p627
(dp628
g3
Vn03602883
p629
sg5
I00
sg6
Nsg7
(lp630
g629
asba(i__main__
Node
p631
(dp632
g3
Vn04372370
p633
sg5
I00
sg6
Nsg7
(lp634
g633
asbasg7
(lp635
g629
ag633
asbag513
a(i__main__
Node
p636
(dp637
g3
Vn03873416
p638
sg5
I00
sg6
Nsg7
(lp639
g638
asba(i__main__
Node
p640
(dp641
g3
Vn01806567
p642
sg5
I00
sg6
Nsg7
(lp643
g642
asba(i__main__
Node
p644
(dp645
g3
Vn04571292
p646
sg5
I00
sg6
(lp647
(i__main__
Node
p648
(dp649
g3
Vn02790996
p650
sg5
I00
sg6
Nsg7
(lp651
g650
asba(i__main__
Node
p652
(dp653
g3
Vn03255030
p654
sg5
I00
sg6
Nsg7
(lp655
g654
asbasg7
(lp656
g650
ag654
asba(i__main__
Node
p657
(dp658
g3
Vn02924116
p659
sg5
I00
sg6
(lp660
(i__main__
Node
p661
(dp662
g3
Vn03769881
p663
sg5
I00
sg6
Nsg7
(lp664
g663
asba(i__main__
Node
p665
(dp666
g3
Vn04146614
p667
sg5
I00
sg6
Nsg7
(lp668
g667
asba(i__main__
Node
p669
(dp670
g3
Vn04487081
p671
sg5
I00
sg6
Nsg7
(lp672
g671
asbasg7
(lp673
g663
ag667
ag671
asba(i__main__
Node
p674
(dp675
g3
Vn01981276
p676
sg5
I00
sg6
Nsg7
(lp677
g676
asba(i__main__
Node
p678
(dp679
g3
Vn01924916
p680
sg5
I00
sg6
Nsg7
(lp681
g680
asba(i__main__
Node
p682
(dp683
g3
Vn02727426
p684
sg5
I00
sg6
Nsg7
(lp685
g684
asba(i__main__
Node
p686
(dp687
g3
Vn03041632
p688
sg5
I00
sg6
Nsg7
(lp689
g688
asba(i__main__
Node
p690
(dp691
g3
Vn04591713
p692
sg5
I00
sg6
Nsg7
(lp693
g692
asba(i__main__
Node
p694
(dp695
g3
Vn03325584
p696
sg5
I00
sg6
Nsg7
(lp697
g696
asbag577
a(i__main__
Node
p698
(dp699
g3
Vn04438304
p700
sg5
I00
sg6
(lp701
(i__main__
Node
p702
(dp703
g3
Vn03891332
p704
sg5
I00
sg6
Nsg7
(lp705
g704
asba(i__main__
Node
p706
(dp707
g3
Vn04328186
p708
sg5
I00
sg6
Nsg7
(lp709
g708
asbasg7
(lp710
g704
ag708
asba(i__main__
Node
p711
(dp712
g3
Vn02669723
p713
sg5
I00
sg6
Nsg7
(lp714
g713
asba(i__main__
Node
p715
(dp716
g3
Vn04204347
p717
sg5
I00
sg6
Nsg7
(lp718
g717
asba(i__main__
Node
p719
(dp720
g3
Vn01498041
p721
sg5
I00
sg6
Nsg7
(lp722
g721
asba(i__main__
Node
p723
(dp724
g3
Vn04458633
p725
sg5
I00
sg6
Nsg7
(lp726
g725
asbag224
a(i__main__
Node
p727
(dp728
g3
Vn01687665
p729
sg5
I00
sg6
(lp730
(i__main__
Node
p731
(dp732
g3
Vn01687978
p733
sg5
I00
sg6
Nsg7
(lp734
g733
asba(i__main__
Node
p735
(dp736
g3
Vn01688243
p737
sg5
I00
sg6
Nsg7
(lp738
g737
asbasg7
(lp739
g733
ag737
asba(i__main__
Node
p740
(dp741
g3
Vn03450230
p742
sg5
I00
sg6
Nsg7
(lp743
g742
asba(i__main__
Node
p744
(dp745
g3
Vn03450516
p746
sg5
I00
sg6
(lp747
g711
a(i__main__
Node
p748
(dp749
g3
Vn04532106
p750
sg5
I00
sg6
Nsg7
(lp751
g750
asbasg7
(lp752
g713
ag750
asba(i__main__
Node
p753
(dp754
g3
Vn03938244
p755
sg5
I00
sg6
Nsg7
(lp756
g755
asba(i__main__
Node
p757
(dp758
g3
Vn02096756
p759
sg5
I00
sg6
(lp760
(i__main__
Node
p761
(dp762
g3
Vn02097130
p763
sg5
I00
sg6
Nsg7
(lp764
g763
asba(i__main__
Node
p765
(dp766
g3
Vn02097047
p767
sg5
I00
sg6
Nsg7
(lp768
g767
asba(i__main__
Node
p769
(dp770
g3
Vn02097209
p771
sg5
I00
sg6
Nsg7
(lp772
g771
asbasg7
(lp773
g763
ag767
ag771
asba(i__main__
Node
p774
(dp775
g3
Vn04258138
p776
sg5
I00
sg6
Nsg7
(lp777
g776
asba(i__main__
Node
p778
(dp779
g3
Vn02113978
p780
sg5
I00
sg6
Nsg7
(lp781
g780
asba(i__main__
Node
p782
(dp783
g3
Vn04015204
p784
sg5
I00
sg6
(lp785
(i__main__
Node
p786
(dp787
g3
Vn02730930
p788
sg5
I00
sg6
Nsg7
(lp789
g788
asba(i__main__
Node
p790
(dp791
g3
Vn03623198
p792
sg5
I00
sg6
Nsg7
(lp793
g792
asbasg7
(lp794
g788
ag792
asba(i__main__
Node
p795
(dp796
g3
Vn02102177
p797
sg5
I00
sg6
Nsg7
(lp798
g797
asba(i__main__
Node
p799
(dp800
g3
Vn03095699
p801
sg5
I00
sg6
Nsg7
(lp802
g801
asbag274
ag111
a(i__main__
Node
p803
(dp804
g3
Vn03196217
p805
sg5
I00
sg6
Nsg7
(lp806
g805
asba(i__main__
Node
p807
(dp808
g3
Vn04485082
p809
sg5
I00
sg6
Nsg7
(lp810
g809
asbag115
a(i__main__
Node
p811
(dp812
g3
Vn02933112
p813
sg5
I00
sg6
(lp814
(i__main__
Node
p815
(dp816
g3
Vn03018349
p817
sg5
I00
sg6
Nsg7
(lp818
g817
asba(i__main__
Node
p819
(dp820
g3
Vn03742115
p821
sg5
I00
sg6
Nsg7
(lp822
g821
asbasg7
(lp823
g817
ag821
asba(i__main__
Node
p824
(dp825
g3
Vn03792972
p826
sg5
I00
sg6
Nsg7
(lp827
g826
asba(i__main__
Node
p828
(dp829
g3
Vn03028079
p830
sg5
I00
sg6
Nsg7
(lp831
g830
asba(i__main__
Node
p832
(dp833
g3
Vn03042490
p834
sg5
I00
sg6
Nsg7
(lp835
g834
asba(i__main__
Node
p836
(dp837
g3
Vn04065272
p838
sg5
I00
sg6
Nsg7
(lp839
g838
asba(i__main__
Node
p840
(dp841
g3
Vn02094258
p842
sg5
I00
sg6
Nsg7
(lp843
g842
asba(i__main__
Node
p844
(dp845
g3
Vn03322940
p846
sg5
I00
sg6
(lp847
(i__main__
Node
p848
(dp849
g3
Vn03496892
p850
sg5
I00
sg6
Nsg7
(lp851
g850
asba(i__main__
Node
p852
(dp853
g3
Vn04428191
p854
sg5
I00
sg6
Nsg7
(lp855
g854
asbasg7
(lp856
g850
ag854
asba(i__main__
Node
p857
(dp858
g3
Vn02132136
p859
sg5
I00
sg6
Nsg7
(lp860
g859
asba(i__main__
Node
p861
(dp862
g3
Vn02403003
p863
sg5
I00
sg6
Nsg7
(lp864
g863
asba(i__main__
Node
p865
(dp866
g3
Vn01755581
p867
sg5
I00
sg6
Nsg7
(lp868
g867
asba(i__main__
Node
p869
(dp870
g3
Vn04070727
p871
sg5
I00
sg6
Nsg7
(lp872
g871
asba(i__main__
Node
p873
(dp874
g3
Vn03814639
p875
sg5
I00
sg6
Nsg7
(lp876
g875
asba(i__main__
Node
p877
(dp878
g3
Vn03093574
p879
sg5
I00
sg6
(lp880
(i__main__
Node
p881
(dp882
g3
Vn03051540
p883
sg5
I00
sg6
(lp884
(i__main__
Node
p885
(dp886
g3
Vn02756098
p887
sg5
I00
sg6
(lp888
(i__main__
Node
p889
(dp890
g3
Vn03724870
p891
sg5
I00
sg6
Nsg7
(lp892
g891
asba(i__main__
Node
p893
(dp894
g3
Vn04584207
p895
sg5
I00
sg6
Nsg7
(lp896
g895
asbasg7
(lp897
g891
ag895
asba(i__main__
Node
p898
(dp899
g3
Vn03419014
p900
sg5
I00
sg6
(lp901
(i__main__
Node
p902
(dp903
g3
Vn03188531
p904
sg5
I00
sg6
Nsg7
(lp905
g904
asba(i__main__
Node
p906
(dp907
g3
Vn03863923
p908
sg5
I00
sg6
(lp909
(i__main__
Node
p910
(dp911
g3
Vn03057021
p912
sg5
I00
sg6
(lp913
(i__main__
Node
p914
(dp915
g3
Vn03404251
p916
sg5
I00
sg6
Nsg7
(lp917
g916
asba(i__main__
Node
p918
(dp919
g3
Vn03630383
p920
sg5
I00
sg6
Nsg7
(lp921
g920
asba(i__main__
Node
p922
(dp923
g3
Vn04479046
p924
sg5
I00
sg6
Nsg7
(lp925
g924
asbasg7
(lp926
g916
ag920
ag924
asba(i__main__
Node
p927
(dp928
g3
Vn03980874
p929
sg5
I00
sg6
Nsg7
(lp930
g929
asbasg7
(lp931
g929
ag916
ag920
ag924
asba(i__main__
Node
p932
(dp933
g3
Vn04097866
p934
sg5
I00
sg6
(lp935
(i__main__
Node
p936
(dp937
g3
Vn02667093
p938
sg5
I00
sg6
Nsg7
(lp939
g938
asba(i__main__
Node
p940
(dp941
g3
Vn03617480
p942
sg5
I00
sg6
Nsg7
(lp943
g942
asbasg7
(lp944
g938
ag942
asba(i__main__
Node
p945
(dp946
g3
Vn04143897
p947
sg5
I00
sg6
(lp948
g694
a(i__main__
Node
p949
(dp950
g3
Vn04325704
p951
sg5
I00
sg6
Nsg7
(lp952
g951
asbasg7
(lp953
g696
ag951
asba(i__main__
Node
p954
(dp955
g3
Vn04230808
p956
sg5
I00
sg6
(lp957
(i__main__
Node
p958
(dp959
g3
Vn03534580
p960
sg5
I00
sg6
Nsg7
(lp961
g960
asba(i__main__
Node
p962
(dp963
g3
Vn03770439
p964
sg5
I00
sg6
Nsg7
(lp965
g964
asba(i__main__
Node
p966
(dp967
g3
Vn03866082
p968
sg5
I00
sg6
Nsg7
(lp969
g968
asbag413
asg7
(lp970
g960
ag964
ag968
ag415
asba(i__main__
Node
p971
(dp972
g3
Vn04350905
p973
sg5
I00
sg6
Nsg7
(lp974
g973
asba(i__main__
Node
p975
(dp976
g3
Vn04370048
p977
sg5
I00
sg6
(lp978
(i__main__
Node
p979
(dp980
g3
Vn02963159
p981
sg5
I00
sg6
Nsg7
(lp982
g981
asba(i__main__
Node
p983
(dp984
g3
Vn04370456
p985
sg5
I00
sg6
Nsg7
(lp986
g985
asbasg7
(lp987
g981
ag985
asba(i__main__
Node
p988
(dp989
g3
Vn04371563
p990
sg5
I00
sg6
(lp991
(i__main__
Node
p992
(dp993
g3
Vn02837789
p994
sg5
I00
sg6
Nsg7
(lp995
g994
asba(i__main__
Node
p996
(dp997
g3
Vn03710721
p998
sg5
I00
sg6
Nsg7
(lp999
g998
asba(i__main__
Node
p1000
(dp1001
g3
Vn04371430
p1002
sg5
I00
sg6
Nsg7
(lp1003
g1002
asbasg7
(lp1004
g994
ag998
ag1002
asba(i__main__
Node
p1005
(dp1006
g3
Vn03815615
p1007
sg5
I00
sg6
(lp1008
(i__main__
Node
p1009
(dp1010
g3
Vn02865351
p1011
sg5
I00
sg6
Nsg7
(lp1012
g1011
asba(i__main__
Node
p1013
(dp1014
g3
Vn02883205
p1015
sg5
I00
sg6
Nsg7
(lp1016
g1015
asba(i__main__
Node
p1017
(dp1018
g3
Vn04591157
p1019
sg5
I00
sg6
Nsg7
(lp1020
g1019
asbasg7
(lp1021
g1011
ag1015
ag1019
asba(i__main__
Node
p1022
(dp1023
g3
Vn03595614
p1024
sg5
I00
sg6
Nsg7
(lp1025
g1024
asba(i__main__
Node
p1026
(dp1027
g3
Vn03594734
p1028
sg5
I00
sg6
Nsg7
(lp1029
g1028
asba(i__main__
Node
p1030
(dp1031
g3
Vn02892767
p1032
sg5
I00
sg6
Nsg7
(lp1033
g1032
asba(i__main__
Node
p1034
(dp1035
g3
Vn02916936
p1036
sg5
I00
sg6
Nsg7
(lp1037
g1036
asbasg7
(lp1038
g904
ag973
ag1024
ag1028
ag1032
ag1036
ag929
ag938
ag942
ag696
ag951
ag960
ag964
ag968
ag415
ag981
ag985
ag994
ag998
ag1002
ag1011
ag1015
ag1019
ag916
ag920
ag924
asba(i__main__
Node
p1039
(dp1040
g3
Vn03502509
p1041
sg5
I00
sg6
(lp1042
(i__main__
Node
p1043
(dp1044
g3
Vn02954340
p1045
sg5
I00
sg6
(lp1046
(i__main__
Node
p1047
(dp1048
g3
Vn02807133
p1049
sg5
I00
sg6
Nsg7
(lp1050
g1049
asba(i__main__
Node
p1051
(dp1052
g3
Vn03787032
p1053
sg5
I00
sg6
Nsg7
(lp1054
g1053
asba(i__main__
Node
p1055
(dp1056
g3
Vn04209133
p1057
sg5
I00
sg6
Nsg7
(lp1058
g1057
asbasg7
(lp1059
g1049
ag1053
ag1057
asba(i__main__
Node
p1060
(dp1061
g3
Vn03497657
p1062
sg5
I00
sg6
(lp1063
(i__main__
Node
p1064
(dp1065
g3
Vn02817516
p1066
sg5
I00
sg6
Nsg7
(lp1067
g1066
asba(i__main__
Node
p1068
(dp1069
g3
Vn02869837
p1070
sg5
I00
sg6
Nsg7
(lp1071
g1070
asba(i__main__
Node
p1072
(dp1073
g3
Vn03124170
p1074
sg5
I00
sg6
Nsg7
(lp1075
g1074
asba(i__main__
Node
p1076
(dp1077
g3
Vn04259630
p1078
sg5
I00
sg6
Nsg7
(lp1079
g1078
asbasg7
(lp1080
g1066
ag1070
ag1074
ag1078
asba(i__main__
Node
p1081
(dp1082
g3
Vn03513137
p1083
sg5
I00
sg6
(lp1084
(i__main__
Node
p1085
(dp1086
g3
Vn03127747
p1087
sg5
I00
sg6
Nsg7
(lp1088
g1087
asba(i__main__
Node
p1089
(dp1090
g3
Vn03379051
p1091
sg5
I00
sg6
Nsg7
(lp1092
g1091
asbasg7
(lp1093
g1087
ag1091
asbasg7
(lp1094
g1049
ag1053
ag1057
ag1066
ag1070
ag1074
ag1078
ag1087
ag1091
asbag782
a(i__main__
Node
p1095
(dp1096
g3
Vn04596852
p1097
sg5
I00
sg6
(lp1098
g1030
ag740
asg7
(lp1099
g1032
ag742
asba(i__main__
Node
p1100
(dp1101
g3
Vn03540267
p1102
sg5
I00
sg6
(lp1103
(i__main__
Node
p1104
(dp1105
g3
Vn04254777
p1106
sg5
I00
sg6
Nsg7
(lp1107
g1106
asba(i__main__
Node
p1108
(dp1109
g3
Vn03026506
p1110
sg5
I00
sg6
Nsg7
(lp1111
g1110
asba(i__main__
Node
p1112
(dp1113
g3
Vn03710637
p1114
sg5
I00
sg6
Nsg7
(lp1115
g1114
asbasg7
(lp1116
g1106
ag1110
ag1114
asba(i__main__
Node
p1117
(dp1118
g3
Vn03877472
p1119
sg5
I00
sg6
Nsg7
(lp1120
g1119
asbag744
a(i__main__
Node
p1121
(dp1122
g3
Vn03763968
p1123
sg5
I00
sg6
Nsg7
(lp1124
g1123
asba(i__main__
Node
p1125
(dp1126
g3
Vn03775071
p1127
sg5
I00
sg6
Nsg7
(lp1128
g1127
asba(i__main__
Node
p1129
(dp1130
g3
Vn04162706
p1131
sg5
I00
sg6
Nsg7
(lp1132
g1131
asbasg7
(lp1133
g1119
ag1123
ag1127
ag1131
ag891
ag895
ag904
ag973
ag1024
ag1028
ag1032
ag1036
ag788
ag792
ag742
ag1106
ag1110
ag1114
ag713
ag750
ag929
ag938
ag942
ag696
ag951
ag960
ag964
ag968
ag415
ag981
ag985
ag994
ag998
ag1002
ag1011
ag1015
ag1019
ag1049
ag1053
ag1057
ag1066
ag1070
ag1074
ag1078
ag1087
ag1091
ag916
ag920
ag924
asba(i__main__
Node
p1134
(dp1135
g3
Vn02729837
p1136
sg5
I00
sg6
(lp1137
(i__main__
Node
p1138
(dp1139
g3
Vn03528263
p1140
sg5
I00
sg6
(lp1141
g484
a(i__main__
Node
p1142
(dp1143
g3
Vn03620052
p1144
sg5
I00
sg6
(lp1145
(i__main__
Node
p1146
(dp1147
g3
Vn03761084
p1148
sg5
I00
sg6
Nsg7
(lp1149
g1148
asba(i__main__
Node
p1150
(dp1151
g3
Vn03862676
p1152
sg5
I00
sg6
(lp1153
(i__main__
Node
p1154
(dp1155
g3
Vn03259280
p1156
sg5
I00
sg6
Nsg7
(lp1157
g1156
asba(i__main__
Node
p1158
(dp1159
g3
Vn04111531
p1160
sg5
I00
sg6
Nsg7
(lp1161
g1160
asbasg7
(lp1162
g1156
ag1160
asba(i__main__
Node
p1163
(dp1164
g3
Vn04442312
p1165
sg5
I00
sg6
Nsg7
(lp1166
g1165
asba(i__main__
Node
p1167
(dp1168
g3
Vn04542943
p1169
sg5
I00
sg6
Nsg7
(lp1170
g1169
asba(i__main__
Node
p1171
(dp1172
g3
Vn03297495
p1173
sg5
I00
sg6
Nsg7
(lp1174
g1173
asbasg7
(lp1175
g1148
ag1165
ag1169
ag1173
ag1156
ag1160
asba(i__main__
Node
p1176
(dp1177
g3
Vn04179913
p1178
sg5
I00
sg6
Nsg7
(lp1179
g1178
asba(i__main__
Node
p1180
(dp1181
g3
Vn04517823
p1182
sg5
I00
sg6
Nsg7
(lp1183
g1182
asba(i__main__
Node
p1184
(dp1185
g3
Vn04580493
p1186
sg5
I00
sg6
(lp1187
(i__main__
Node
p1188
(dp1189
g3
Vn03207941
p1190
sg5
I00
sg6
Nsg7
(lp1191
g1190
asbag869
a(i__main__
Node
p1192
(dp1193
g3
Vn04554684
p1194
sg5
I00
sg6
Nsg7
(lp1195
g1194
asbasg7
(lp1196
g1190
ag871
ag1194
asbasg7
(lp1197
g486
ag1178
ag1182
ag1148
ag1165
ag1169
ag1173
ag1190
ag871
ag1194
ag1156
ag1160
asba(i__main__
Node
p1198
(dp1199
g3
Vn03483316
p1200
sg5
I00
sg6
Nsg7
(lp1201
g1200
asbasg7
(lp1202
g1200
ag486
ag1178
ag1182
ag1148
ag1165
ag1169
ag1173
ag1190
ag871
ag1194
ag1156
ag1160
asbasg7
(lp1203
g1119
ag1123
ag1127
ag1131
ag1200
ag891
ag895
ag904
ag973
ag1024
ag1028
ag1032
ag1036
ag788
ag792
ag742
ag1106
ag1110
ag1114
ag713
ag750
ag486
ag1178
ag1182
ag929
ag938
ag942
ag696
ag951
ag960
ag964
ag968
ag415
ag981
ag985
ag994
ag998
ag1002
ag1011
ag1015
ag1019
ag1049
ag1053
ag1057
ag1066
ag1070
ag1074
ag1078
ag1087
ag1091
ag1148
ag1165
ag1169
ag1173
ag1190
ag871
ag1194
ag916
ag920
ag924
ag1156
ag1160
asba(i__main__
Node
p1204
(dp1205
g3
Vn02787622
p1206
sg5
I00
sg6
Nsg7
(lp1207
g1206
asba(i__main__
Node
p1208
(dp1209
g3
Vn03160309
p1210
sg5
I00
sg6
Nsg7
(lp1211
g1210
asba(i__main__
Node
p1212
(dp1213
g3
Vn02123159
p1214
sg5
I00
sg6
Nsg7
(lp1215
g1214
asba(i__main__
Node
p1216
(dp1217
g3
Vn02108000
p1218
sg5
I00
sg6
Nsg7
(lp1219
g1218
asba(i__main__
Node
p1220
(dp1221
g3
Vn02395003
p1222
sg5
I00
sg6
(lp1223
(i__main__
Node
p1224
(dp1225
g3
Vn02395406
p1226
sg5
I00
sg6
Nsg7
(lp1227
g1226
asba(i__main__
Node
p1228
(dp1229
g3
Vn02397096
p1230
sg5
I00
sg6
Nsg7
(lp1231
g1230
asba(i__main__
Node
p1232
(dp1233
g3
Vn02396427
p1234
sg5
I00
sg6
Nsg7
(lp1235
g1234
asbasg7
(lp1236
g1226
ag1230
ag1234
asba(i__main__
Node
p1237
(dp1238
g3
Vn04462240
p1239
sg5
I00
sg6
Nsg7
(lp1240
g1239
asba(i__main__
Node
p1241
(dp1242
g3
Vn02840245
p1243
sg5
I00
sg6
Nsg7
(lp1244
g1243
asba(i__main__
Node
p1245
(dp1246
g3
Vn12057211
p1247
sg5
I00
sg6
Nsg7
(lp1248
g1247
asbag92
a(i__main__
Node
p1249
(dp1250
g3
Vn02008041
p1251
sg5
I00
sg6
(lp1252
(i__main__
Node
p1253
(dp1254
g3
Vn02011460
p1255
sg5
I00
sg6
Nsg7
(lp1256
g1255
asba(i__main__
Node
p1257
(dp1258
g3
Vn02009229
p1259
sg5
I00
sg6
Nsg7
(lp1260
g1259
asba(i__main__
Node
p1261
(dp1262
g3
Vn02009912
p1263
sg5
I00
sg6
Nsg7
(lp1264
g1263
asbasg7
(lp1265
g1255
ag1259
ag1263
asba(i__main__
Node
p1266
(dp1267
g3
Vn04548280
p1268
sg5
I00
sg6
Nsg7
(lp1269
g1268
asba(i__main__
Node
p1270
(dp1271
g3
Vn03492542
p1272
sg5
I00
sg6
Nsg7
(lp1273
g1272
asba(i__main__
Node
p1274
(dp1275
g3
Vn03417042
p1276
sg5
I00
sg6
Nsg7
(lp1277
g1276
asbag975
a(i__main__
Node
p1278
(dp1279
g3
Vn00003553
p1280
sg5
I00
sg6
(lp1281
(i__main__
Node
p1282
(dp1283
g3
Vn00021939
p1284
sg5
I00
sg6
(lp1285
(i__main__
Node
p1286
(dp1287
g3
Vn03076708
p1288
sg5
I00
sg6
(lp1289
g877
a(i__main__
Node
p1290
(dp1291
g3
Vn02808304
p1292
sg5
I00
sg6
Nsg7
(lp1293
g1292
asbasg7
(lp1294
g1292
ag1119
ag1123
ag1127
ag1131
ag1200
ag891
ag895
ag904
ag973
ag1024
ag1028
ag1032
ag1036
ag788
ag792
ag742
ag1106
ag1110
ag1114
ag713
ag750
ag486
ag1178
ag1182
ag929
ag938
ag942
ag696
ag951
ag960
ag964
ag968
ag415
ag981
ag985
ag994
ag998
ag1002
ag1011
ag1015
ag1019
ag1049
ag1053
ag1057
ag1066
ag1070
ag1074
ag1078
ag1087
ag1091
ag1148
ag1165
ag1169
ag1173
ag1190
ag871
ag1194
ag916
ag920
ag924
ag1156
ag1160
asba(i__main__
Node
p1295
(dp1296
g3
Vn03122748
p1297
sg5
I00
sg6
(lp1298
(i__main__
Node
p1299
(dp1300
g3
Vn03045698
p1301
sg5
I00
sg6
Nsg7
(lp1302
g1301
asba(i__main__
Node
p1303
(dp1304
g3
Vn03050026
p1305
sg5
I00
sg6
(lp1306
(i__main__
Node
p1307
(dp1308
g3
Vn04033995
p1309
sg5
I00
sg6
Nsg7
(lp1310
g1309
asba(i__main__
Node
p1311
(dp1312
g3
Vn02786058
p1313
sg5
I00
sg6
Nsg7
(lp1314
g1313
asbasg7
(lp1315
g1309
ag1313
asbag881
a(i__main__
Node
p1316
(dp1317
g3
Vn03366823
p1318
sg5
I00
sg6
(lp1319
(i__main__
Node
p1320
(dp1321
g3
Vn03223299
p1322
sg5
I00
sg6
Nsg7
(lp1323
g1322
asba(i__main__
Node
p1324
(dp1325
g3
Vn03998194
p1326
sg5
I00
sg6
Nsg7
(lp1327
g1326
asbasg7
(lp1328
g1322
ag1326
asba(i__main__
Node
p1329
(dp1330
g3
Vn03380867
p1331
sg5
I00
sg6
(lp1332
(i__main__
Node
p1333
(dp1334
g3
Vn03047690
p1335
sg5
I00
sg6
Nsg7
(lp1336
g1335
asba(i__main__
Node
p1337
(dp1338
g3
Vn04199027
p1339
sg5
I00
sg6
(lp1340
(i__main__
Node
p1341
(dp1342
g3
Vn03680355
p1343
sg5
I00
sg6
Nsg7
(lp1344
g1343
asba(i__main__
Node
p1345
(dp1346
g3
Vn04120489
p1347
sg5
I00
sg6
Nsg7
(lp1348
g1347
asba(i__main__
Node
p1349
(dp1350
g3
Vn04133789
p1351
sg5
I00
sg6
Nsg7
(lp1352
g1351
asbasg7
(lp1353
g1343
ag1347
ag1351
asba(i__main__
Node
p1354
(dp1355
g3
Vn03124043
p1356
sg5
I00
sg6
Nsg7
(lp1357
g1356
asbasg7
(lp1358
g1335
ag1356
ag1343
ag1347
ag1351
asba(i__main__
Node
p1359
(dp1360
g3
Vn04014297
p1361
sg5
I00
sg6
(lp1362
(i__main__
Node
p1363
(dp1364
g3
Vn02739668
p1365
sg5
I00
sg6
(lp1366
(i__main__
Node
p1367
(dp1368
g3
Vn02862048
p1369
sg5
I00
sg6
(lp1370
g1034
a(i__main__
Node
p1371
(dp1372
g3
Vn03000247
p1373
sg5
I00
sg6
Nsg7
(lp1374
g1373
asba(i__main__
Node
p1375
(dp1376
g3
Vn03146219
p1377
sg5
I00
sg6
Nsg7
(lp1378
g1377
asbasg7
(lp1379
g1036
ag1373
ag1377
asba(i__main__
Node
p1380
(dp1381
g3
Vn04192698
p1382
sg5
I00
sg6
Nsg7
(lp1383
g1382
asbasg7
(lp1384
g1382
ag1036
ag1373
ag1377
asbag1241
a(i__main__
Node
p1385
(dp1386
g3
Vn02851099
p1387
sg5
I00
sg6
(lp1388
(i__main__
Node
p1389
(dp1390
g3
Vn03151077
p1391
sg5
I00
sg6
(lp1392
(i__main__
Node
p1393
(dp1394
g3
Vn04209239
p1395
sg5
I00
sg6
Nsg7
(lp1396
g1395
asba(i__main__
Node
p1397
(dp1398
g3
Vn04418357
p1399
sg5
I00
sg6
Nsg7
(lp1400
g1399
asbasg7
(lp1401
g1395
ag1399
asba(i__main__
Node
p1402
(dp1403
g3
Vn04590129
p1404
sg5
I00
sg6
Nsg7
(lp1405
g1404
asbasg7
(lp1406
g1404
ag1395
ag1399
asba(i__main__
Node
p1407
(dp1408
g3
Vn02955065
p1409
sg5
I00
sg6
(lp1410
(i__main__
Node
p1411
(dp1412
g3
Vn03657121
p1413
sg5
I00
sg6
Nsg7
(lp1414
g1413
asba(i__main__
Node
p1415
(dp1416
g3
Vn04423845
p1417
sg5
I00
sg6
Nsg7
(lp1418
g1417
asbasg7
(lp1419
g1413
ag1417
asba(i__main__
Node
p1420
(dp1421
g3
Vn03725035
p1422
sg5
I00
sg6
(lp1423
(i__main__
Node
p1424
(dp1425
g3
Vn03424325
p1426
sg5
I00
sg6
Nsg7
(lp1427
g1426
asba(i__main__
Node
p1428
(dp1429
g3
Vn04229816
p1430
sg5
I00
sg6
Nsg7
(lp1431
g1430
asbasg7
(lp1432
g1426
ag1430
asba(i__main__
Node
p1433
(dp1434
g3
Vn04105068
p1435
sg5
I00
sg6
(lp1436
(i__main__
Node
p1437
(dp1438
g3
Vn03220513
p1439
sg5
I00
sg6
Nsg7
(lp1440
g1439
asba(i__main__
Node
p1441
(dp1442
g3
Vn04417672
p1443
sg5
I00
sg6
Nsg7
(lp1444
g1443
asba(i__main__
Node
p1445
(dp1446
g3
Vn04435653
p1447
sg5
I00
sg6
Nsg7
(lp1448
g1447
asba(i__main__
Node
p1449
(dp1450
g3
Vn04523525
p1451
sg5
I00
sg6
Nsg7
(lp1452
g1451
asbasg7
(lp1453
g1439
ag1443
ag1447
ag1451
asba(i__main__
Node
p1454
(dp1455
g3
Vn04151581
p1456
sg5
I00
sg6
(lp1457
(i__main__
Node
p1458
(dp1459
g3
Vn03347037
p1460
sg5
I00
sg6
Nsg7
(lp1461
g1460
asba(i__main__
Node
p1462
(dp1463
g3
Vn03788365
p1464
sg5
I00
sg6
Nsg7
(lp1465
g1464
asba(i__main__
Node
p1466
(dp1467
g3
Vn04589890
p1468
sg5
I00
sg6
Nsg7
(lp1469
g1468
asbasg7
(lp1470
g1460
ag1464
ag1468
asba(i__main__
Node
p1471
(dp1472
g3
Vn04187061
p1473
sg5
I00
sg6
(lp1474
(i__main__
Node
p1475
(dp1476
g3
Vn03527444
p1477
sg5
I00
sg6
Nsg7
(lp1478
g1477
asba(i__main__
Node
p1479
(dp1480
g3
Vn04141327
p1481
sg5
I00
sg6
Nsg7
(lp1482
g1481
asbasg7
(lp1483
g1477
ag1481
asba(i__main__
Node
p1484
(dp1485
g3
Vn04191943
p1486
sg5
I00
sg6
(lp1487
(i__main__
Node
p1488
(dp1489
g3
Vn02825657
p1490
sg5
I00
sg6
Nsg7
(lp1491
g1490
asba(i__main__
Node
p1492
(dp1493
g3
Vn02843684
p1494
sg5
I00
sg6
Nsg7
(lp1495
g1494
asba(i__main__
Node
p1496
(dp1497
g3
Vn04507155
p1498
sg5
I00
sg6
Nsg7
(lp1499
g1498
asbasg7
(lp1500
g1490
ag1494
ag1498
asba(i__main__
Node
p1501
(dp1502
g3
Vn03637318
p1503
sg5
I00
sg6
Nsg7
(lp1504
g1503
asba(i__main__
Node
p1505
(dp1506
g3
Vn02740764
p1507
sg5
I00
sg6
(lp1508
(i__main__
Node
p1509
(dp1510
g3
Vn02895154
p1511
sg5
I00
sg6
Nsg7
(lp1512
g1511
asba(i__main__
Node
p1513
(dp1514
g3
Vn03929855
p1515
sg5
I00
sg6
Nsg7
(lp1516
g1515
asbasg7
(lp1517
g1511
ag1515
asbasg7
(lp1518
g1243
ag1503
ag1382
ag1404
ag1413
ag1417
ag1426
ag1430
ag1439
ag1443
ag1447
ag1451
ag1460
ag1464
ag1468
ag1477
ag1481
ag1490
ag1494
ag1498
ag1511
ag1515
ag1036
ag1373
ag1377
ag1395
ag1399
asba(i__main__
Node
p1519
(dp1520
g3
Vn04453910
p1521
sg5
I00
sg6
(lp1522
(i__main__
Node
p1523
(dp1524
g3
Vn02954938
p1525
sg5
I00
sg6
(lp1526
(i__main__
Node
p1527
(dp1528
g3
Vn02877765
p1529
sg5
I00
sg6
Nsg7
(lp1530
g1529
asba(i__main__
Node
p1531
(dp1532
g3
Vn03825788
p1533
sg5
I00
sg6
Nsg7
(lp1534
g1533
asbasg7
(lp1535
g1529
ag1533
asba(i__main__
Node
p1536
(dp1537
g3
Vn03717622
p1538
sg5
I00
sg6
Nsg7
(lp1539
g1538
asbasg7
(lp1540
g1538
ag1529
ag1533
asba(i__main__
Node
p1541
(dp1542
g3
Vn04201297
p1543
sg5
I00
sg6
Nsg7
(lp1544
g1543
asba(i__main__
Node
p1545
(dp1546
g3
Vn07248320
p1547
sg5
I00
sg6
Nsg7
(lp1548
g1547
asbasg7
(lp1549
g1301
ag1543
ag1547
ag1309
ag1313
ag1119
ag1123
ag1127
ag1131
ag1322
ag1326
ag1335
ag1356
ag1243
ag1503
ag1538
ag891
ag895
ag904
ag973
ag1024
ag1028
ag1032
ag1036
ag788
ag792
ag742
ag1106
ag1110
ag1114
ag713
ag750
ag1343
ag1347
ag1351
ag1382
ag1404
ag1413
ag1417
ag1426
ag1430
ag1439
ag1443
ag1447
ag1451
ag1460
ag1464
ag1468
ag1477
ag1481
ag1490
ag1494
ag1498
ag1511
ag1515
ag1529
ag1533
ag929
ag938
ag942
ag696
ag951
ag960
ag964
ag968
ag415
ag981
ag985
ag994
ag998
ag1002
ag1011
ag1015
ag1019
ag1049
ag1053
ag1057
ag1066
ag1070
ag1074
ag1078
ag1087
ag1091
ag1373
ag1377
ag1395
ag1399
ag916
ag920
ag924
asba(i__main__
Node
p1550
(dp1551
g3
Vn03169390
p1552
sg5
I00
sg6
(lp1553
(i__main__
Node
p1554
(dp1555
g3
Vn03814906
p1556
sg5
I00
sg6
Nsg7
(lp1557
g1556
asbag723
asg7
(lp1558
g1556
ag725
asba(i__main__
Node
p1559
(dp1560
g3
Vn03309808
p1561
sg5
I00
sg6
(lp1562
(i__main__
Node
p1563
(dp1564
g3
Vn03932670
p1565
sg5
I00
sg6
(lp1566
(i__main__
Node
p1567
(dp1568
g3
Vn02834397
p1569
sg5
I00
sg6
Nsg7
(lp1570
g1569
asba(i__main__
Node
p1571
(dp1572
g3
Vn03207743
p1573
sg5
I00
sg6
Nsg7
(lp1574
g1573
asba(i__main__
Node
p1575
(dp1576
g3
Vn03485794
p1577
sg5
I00
sg6
Nsg7
(lp1578
g1577
asba(i__main__
Node
p1579
(dp1580
g3
Vn04459362
p1581
sg5
I00
sg6
(lp1582
g1290
a(i__main__
Node
p1583
(dp1584
g3
Vn03887697
p1585
sg5
I00
sg6
Nsg7
(lp1586
g1585
asbasg7
(lp1587
g1292
ag1585
asbasg7
(lp1588
g1569
ag1573
ag1577
ag1292
ag1585
asba(i__main__
Node
p1589
(dp1590
g3
Vn04525038
p1591
sg5
I00
sg6
Nsg7
(lp1592
g1591
asba(i__main__
Node
p1593
(dp1594
g3
Vn04599235
p1595
sg5
I00
sg6
Nsg7
(lp1596
g1595
asbasg7
(lp1597
g1591
ag1595
ag1569
ag1573
ag1577
ag1292
ag1585
asba(i__main__
Node
p1598
(dp1599
g3
Vn03575240
p1600
sg5
I00
sg6
(lp1601
(i__main__
Node
p1602
(dp1603
g3
Vn03094503
p1604
sg5
I00
sg6
(lp1605
(i__main__
Node
p1606
(dp1607
g3
Vn02773037
p1608
sg5
I00
sg6
(lp1609
(i__main__
Node
p1610
(dp1611
g3
Vn02769748
p1612
sg5
I00
sg6
Nsg7
(lp1613
g1612
asba(i__main__
Node
p1614
(dp1615
g3
Vn03709823
p1616
sg5
I00
sg6
Nsg7
(lp1617
g1616
asba(i__main__
Node
p1618
(dp1619
g3
Vn03958227
p1620
sg5
I00
sg6
Nsg7
(lp1621
g1620
asba(i__main__
Node
p1622
(dp1623
g3
Vn04026417
p1624
sg5
I00
sg6
Nsg7
(lp1625
g1624
asba(i__main__
Node
p1626
(dp1627
g3
Vn04235860
p1628
sg5
I00
sg6
Nsg7
(lp1629
g1628
asbasg7
(lp1630
g1612
ag1616
ag1620
ag1624
ag1628
asba(i__main__
Node
p1631
(dp1632
g3
Vn02801938
p1633
sg5
I00
sg6
(lp1634
(i__main__
Node
p1635
(dp1636
g3
Vn03482405
p1637
sg5
I00
sg6
Nsg7
(lp1638
g1637
asba(i__main__
Node
p1639
(dp1640
g3
Vn04204238
p1641
sg5
I00
sg6
Nsg7
(lp1642
g1641
asbasg7
(lp1643
g1637
ag1641
asba(i__main__
Node
p1644
(dp1645
g3
Vn02883344
p1646
sg5
I00
sg6
(lp1647
(i__main__
Node
p1648
(dp1649
g3
Vn02971356
p1650
sg5
I00
sg6
Nsg7
(lp1651
g1650
asba(i__main__
Node
p1652
(dp1653
g3
Vn03014705
p1654
sg5
I00
sg6
Nsg7
(lp1655
g1654
asba(i__main__
Node
p1656
(dp1657
g3
Vn03127925
p1658
sg5
I00
sg6
Nsg7
(lp1659
g1658
asba(i__main__
Node
p1660
(dp1661
g3
Vn03710193
p1662
sg5
I00
sg6
Nsg7
(lp1663
g1662
asba(i__main__
Node
p1664
(dp1665
g3
Vn03908618
p1666
sg5
I00
sg6
Nsg7
(lp1667
g1666
asba(i__main__
Node
p1668
(dp1669
g3
Vn04125021
p1670
sg5
I00
sg6
Nsg7
(lp1671
g1670
asbasg7
(lp1672
g1650
ag1654
ag1658
ag1662
ag1666
ag1670
asba(i__main__
Node
p1673
(dp1674
g3
Vn02978881
p1675
sg5
I00
sg6
Nsg7
(lp1676
g1675
asba(i__main__
Node
p1677
(dp1678
g3
Vn03206908
p1679
sg5
I00
sg6
(lp1680
(i__main__
Node
p1681
(dp1682
g3
Vn02880940
p1683
sg5
I00
sg6
(lp1684
(i__main__
Node
p1685
(dp1686
g3
Vn03775546
p1687
sg5
I00
sg6
Nsg7
(lp1688
g1687
asba(i__main__
Node
p1689
(dp1690
g3
Vn04263257
p1691
sg5
I00
sg6
Nsg7
(lp1692
g1691
asbasg7
(lp1693
g1687
ag1691
asba(i__main__
Node
p1694
(dp1695
g3
Vn03920288
p1696
sg5
I00
sg6
Nsg7
(lp1697
g1696
asbasg7
(lp1698
g1696
ag1687
ag1691
asba(i__main__
Node
p1699
(dp1700
g3
Vn03291819
p1701
sg5
I00
sg6
Nsg7
(lp1702
g1701
asba(i__main__
Node
p1703
(dp1704
g3
Vn03438257
p1705
sg5
I00
sg6
(lp1706
(i__main__
Node
p1707
(dp1708
g3
Vn02823750
p1709
sg5
I00
sg6
Nsg7
(lp1710
g1709
asba(i__main__
Node
p1711
(dp1712
g3
Vn03443371
p1713
sg5
I00
sg6
Nsg7
(lp1714
g1713
asbasg7
(lp1715
g1709
ag1713
asba(i__main__
Node
p1716
(dp1717
g3
Vn03991062
p1718
sg5
I00
sg6
Nsg7
(lp1719
g1718
asba(i__main__
Node
p1720
(dp1721
g3
Vn04183329
p1722
sg5
I00
sg6
(lp1723
(i__main__
Node
p1724
(dp1725
g3
Vn03062245
p1726
sg5
I00
sg6
Nsg7
(lp1727
g1726
asba(i__main__
Node
p1728
(dp1729
g3
Vn04131690
p1730
sg5
I00
sg6
Nsg7
(lp1731
g1730
asbasg7
(lp1732
g1726
ag1730
asbag1415
a(i__main__
Node
p1733
(dp1734
g3
Vn04531098
p1735
sg5
I00
sg6
(lp1736
(i__main__
Node
p1737
(dp1738
g3
Vn02795169
p1739
sg5
I00
sg6
Nsg7
(lp1740
g1739
asba(i__main__
Node
p1741
(dp1742
g3
Vn02808440
p1743
sg5
I00
sg6
Nsg7
(lp1744
g1743
asba(i__main__
Node
p1745
(dp1746
g3
Vn02876657
p1747
sg5
I00
sg6
(lp1748
(i__main__
Node
p1749
(dp1750
g3
Vn02823428
p1751
sg5
I00
sg6
Nsg7
(lp1752
g1751
asbag437
a(i__main__
Node
p1753
(dp1754
g3
Vn03937543
p1755
sg5
I00
sg6
Nsg7
(lp1756
g1755
asba(i__main__
Node
p1757
(dp1758
g3
Vn03983396
p1759
sg5
I00
sg6
Nsg7
(lp1760
g1759
asba(i__main__
Node
p1761
(dp1762
g3
Vn04557648
p1763
sg5
I00
sg6
Nsg7
(lp1764
g1763
asbag690
asg7
(lp1765
g1751
ag1755
ag1759
ag1763
ag692
ag443
ag447
asba(i__main__
Node
p1766
(dp1767
g3
Vn02909870
p1768
sg5
I00
sg6
Nsg7
(lp1769
g1768
asba(i__main__
Node
p1770
(dp1771
g3
Vn03593526
p1772
sg5
I00
sg6
(lp1773
(i__main__
Node
p1774
(dp1775
g3
Vn02815834
p1776
sg5
I00
sg6
Nsg7
(lp1777
g1776
asba(i__main__
Node
p1778
(dp1779
g3
Vn04522168
p1780
sg5
I00
sg6
Nsg7
(lp1781
g1780
asbasg7
(lp1782
g1776
ag1780
asba(i__main__
Node
p1783
(dp1784
g3
Vn03633091
p1785
sg5
I00
sg6
Nsg7
(lp1786
g1785
asba(i__main__
Node
p1787
(dp1788
g3
Vn03786901
p1789
sg5
I00
sg6
Nsg7
(lp1790
g1789
asba(i__main__
Node
p1791
(dp1792
g3
Vn03950228
p1793
sg5
I00
sg6
Nsg7
(lp1794
g1793
asba(i__main__
Node
p1795
(dp1796
g3
Vn03990474
p1797
sg5
I00
sg6
(lp1798
(i__main__
Node
p1799
(dp1800
g3
Vn02939185
p1801
sg5
I00
sg6
Nsg7
(lp1802
g1801
asba(i__main__
Node
p1803
(dp1804
g3
Vn03063689
p1805
sg5
I00
sg6
Nsg7
(lp1806
g1805
asba(i__main__
Node
p1807
(dp1808
g3
Vn04398044
p1809
sg5
I00
sg6
Nsg7
(lp1810
g1809
asbasg7
(lp1811
g1801
ag1805
ag1809
asba(i__main__
Node
p1812
(dp1813
g3
Vn04493381
p1814
sg5
I00
sg6
Nsg7
(lp1815
g1814
asba(i__main__
Node
p1816
(dp1817
g3
Vn04553703
p1818
sg5
I00
sg6
Nsg7
(lp1819
g1818
asba(i__main__
Node
p1820
(dp1821
g3
Vn04078574
p1822
sg5
I00
sg6
(lp1823
(i__main__
Node
p1824
(dp1825
g3
Vn04562935
p1826
sg5
I00
sg6
Nsg7
(lp1827
g1826
asba(i__main__
Node
p1828
(dp1829
g3
Vn04049303
p1830
sg5
I00
sg6
Nsg7
(lp1831
g1830
asbasg7
(lp1832
g1826
ag1830
asba(i__main__
Node
p1833
(dp1834
g3
Vn03063599
p1835
sg5
I00
sg6
Nsg7
(lp1836
g1835
asbasg7
(lp1837
g1739
ag1743
ag1768
ag1785
ag1789
ag1793
ag1814
ag1818
ag1835
ag1751
ag1755
ag1759
ag1763
ag692
ag1776
ag1780
ag1801
ag1805
ag1809
ag1826
ag1830
ag443
ag447
asba(i__main__
Node
p1838
(dp1839
g3
Vn04576211
p1840
sg5
I00
sg6
(lp1841
(i__main__
Node
p1842
(dp1843
g3
Vn02834778
p1844
sg5
I00
sg6
(lp1845
(i__main__
Node
p1846
(dp1847
g3
Vn02835271
p1848
sg5
I00
sg6
Nsg7
(lp1849
g1848
asba(i__main__
Node
p1850
(dp1851
g3
Vn03792782
p1852
sg5
I00
sg6
Nsg7
(lp1853
g1852
asbasg7
(lp1854
g1848
ag1852
asba(i__main__
Node
p1855
(dp1856
g3
Vn02959942
p1857
sg5
I00
sg6
(lp1858
(i__main__
Node
p1859
(dp1860
g3
Vn03393912
p1861
sg5
I00
sg6
Nsg7
(lp1862
g1861
asba(i__main__
Node
p1863
(dp1864
g3
Vn03895866
p1865
sg5
I00
sg6
Nsg7
(lp1866
g1865
asbasg7
(lp1867
g1861
ag1865
asba(i__main__
Node
p1868
(dp1869
g3
Vn03484083
p1870
sg5
I00
sg6
(lp1871
(i__main__
Node
p1872
(dp1873
g3
Vn02797295
p1874
sg5
I00
sg6
Nsg7
(lp1875
g1874
asbag715
asg7
(lp1876
g1874
ag717
asba(i__main__
Node
p1877
(dp1878
g3
Vn03791053
p1879
sg5
I00
sg6
Nsg7
(lp1880
g1879
asba(i__main__
Node
p1881
(dp1882
g3
Vn04170037
p1883
sg5
I00
sg6
(lp1884
g30
a(i__main__
Node
p1885
(dp1886
g3
Vn03684823
p1887
sg5
I00
sg6
(lp1888
(i__main__
Node
p1889
(dp1890
g3
Vn03272562
p1891
sg5
I00
sg6
Nsg7
(lp1892
g1891
asba(i__main__
Node
p1893
(dp1894
g3
Vn04310018
p1895
sg5
I00
sg6
Nsg7
(lp1896
g1895
asbasg7
(lp1897
g1891
ag1895
asba(i__main__
Node
p1898
(dp1899
g3
Vn03791235
p1900
sg5
I00
sg6
(lp1901
(i__main__
Node
p1902
(dp1903
g3
Vn02704792
p1904
sg5
I00
sg6
Nsg7
(lp1905
g1904
asba(i__main__
Node
p1906
(dp1907
g3
Vn02958343
p1908
sg5
I00
sg6
(lp1909
(i__main__
Node
p1910
(dp1911
g3
Vn02701002
p1912
sg5
I00
sg6
Nsg7
(lp1913
g1912
asba(i__main__
Node
p1914
(dp1915
g3
Vn02814533
p1916
sg5
I00
sg6
Nsg7
(lp1917
g1916
asba(i__main__
Node
p1918
(dp1919
g3
Vn02930766
p1920
sg5
I00
sg6
Nsg7
(lp1921
g1920
asba(i__main__
Node
p1922
(dp1923
g3
Vn03100240
p1924
sg5
I00
sg6
Nsg7
(lp1925
g1924
asba(i__main__
Node
p1926
(dp1927
g3
Vn03594945
p1928
sg5
I00
sg6
Nsg7
(lp1929
g1928
asba(i__main__
Node
p1930
(dp1931
g3
Vn03670208
p1932
sg5
I00
sg6
Nsg7
(lp1933
g1932
asba(i__main__
Node
p1934
(dp1935
g3
Vn03770679
p1936
sg5
I00
sg6
Nsg7
(lp1937
g1936
asba(i__main__
Node
p1938
(dp1939
g3
Vn03777568
p1940
sg5
I00
sg6
Nsg7
(lp1941
g1940
asba(i__main__
Node
p1942
(dp1943
g3
Vn04037443
p1944
sg5
I00
sg6
Nsg7
(lp1945
g1944
asba(i__main__
Node
p1946
(dp1947
g3
Vn04285008
p1948
sg5
I00
sg6
Nsg7
(lp1949
g1948
asbasg7
(lp1950
g1912
ag1916
ag1920
ag1924
ag1928
ag1932
ag1936
ag1940
ag1944
ag1948
asba(i__main__
Node
p1951
(dp1952
g3
Vn03444034
p1953
sg5
I00
sg6
Nsg7
(lp1954
g1953
asba(i__main__
Node
p1955
(dp1956
g3
Vn03445924
p1957
sg5
I00
sg6
Nsg7
(lp1958
g1957
asba(i__main__
Node
p1959
(dp1960
g3
Vn04252225
p1961
sg5
I00
sg6
Nsg7
(lp1962
g1961
asba(i__main__
Node
p1963
(dp1964
g3
Vn04490091
p1965
sg5
I00
sg6
(lp1966
(i__main__
Node
p1967
(dp1968
g3
Vn03345487
p1969
sg5
I00
sg6
Nsg7
(lp1970
g1969
asbag1274
a(i__main__
Node
p1971
(dp1972
g3
Vn03930630
p1973
sg5
I00
sg6
Nsg7
(lp1974
g1973
asba(i__main__
Node
p1975
(dp1976
g3
Vn04461696
p1977
sg5
I00
sg6
Nsg7
(lp1978
g1977
asba(i__main__
Node
p1979
(dp1980
g3
Vn04467665
p1981
sg5
I00
sg6
Nsg7
(lp1982
g1981
asba(i__main__
Node
p1983
(dp1984
g3
Vn04520170
p1985
sg5
I00
sg6
(lp1986
(i__main__
Node
p1987
(dp1988
g3
Vn03796401
p1989
sg5
I00
sg6
Nsg7
(lp1990
g1989
asba(i__main__
Node
p1991
(dp1992
g3
Vn03977966
p1993
sg5
I00
sg6
Nsg7
(lp1994
g1993
asbag1934
asg7
(lp1995
g1989
ag1993
ag1936
asbasg7
(lp1996
g1969
ag1276
ag1973
ag1977
ag1981
ag1989
ag1993
ag1936
asba(i__main__
Node
p1997
(dp1998
g3
Vn03785016
p1999
sg5
I00
sg6
Nsg7
(lp2000
g1999
asbasg7
(lp2001
g1904
ag1953
ag1957
ag1961
ag1999
ag1912
ag1916
ag1920
ag1924
ag1928
ag1932
ag1936
ag1940
ag1944
ag1948
ag1969
ag1276
ag1973
ag1977
ag1981
ag1989
ag1993
asbag836
a(i__main__
Node
p2002
(dp2003
g3
Vn04335435
p2004
sg5
I00
sg6
Nsg7
(lp2005
g2004
asba(i__main__
Node
p2006
(dp2007
g3
Vn04464852
p2008
sg5
I00
sg6
(lp2009
(i__main__
Node
p2010
(dp2011
g3
Vn03478589
p2012
sg5
I00
sg6
Nsg7
(lp2013
g2012
asba(i__main__
Node
p2014
(dp2015
g3
Vn04252077
p2016
sg5
I00
sg6
Nsg7
(lp2017
g2016
asba(i__main__
Node
p2018
(dp2019
g3
Vn04389033
p2020
sg5
I00
sg6
Nsg7
(lp2021
g2020
asbasg7
(lp2022
g2012
ag2016
ag2020
asba(i__main__
Node
p2023
(dp2024
g3
Vn04465501
p2025
sg5
I00
sg6
Nsg7
(lp2026
g2025
asbasg7
(lp2027
g32
ag838
ag2004
ag2025
ag1891
ag1895
ag1904
ag1953
ag1957
ag1961
ag1999
ag2012
ag2016
ag2020
ag1912
ag1916
ag1920
ag1924
ag1928
ag1932
ag1936
ag1940
ag1944
ag1948
ag1969
ag1276
ag1973
ag1977
ag1981
ag1989
ag1993
asba(i__main__
Node
p2028
(dp2029
g3
Vn04482393
p2030
sg5
I00
sg6
Nsg7
(lp2031
g2030
asba(i__main__
Node
p2032
(dp2033
g3
Vn04509417
p2034
sg5
I00
sg6
Nsg7
(lp2035
g2034
asba(i__main__
Node
p2036
(dp2037
g3
Vn03776460
p2038
sg5
I00
sg6
Nsg7
(lp2039
g2038
asba(i__main__
Node
p2040
(dp2041
g3
Vn02970849
p2042
sg5
I00
sg6
(lp2043
(i__main__
Node
p2044
(dp2045
g3
Vn03538406
p2046
sg5
I00
sg6
Nsg7
(lp2047
g2046
asba(i__main__
Node
p2048
(dp2049
g3
Vn03599486
p2050
sg5
I00
sg6
Nsg7
(lp2051
g2050
asba(i__main__
Node
p2052
(dp2053
g3
Vn03868242
p2054
sg5
I00
sg6
Nsg7
(lp2055
g2054
asbasg7
(lp2056
g2046
ag2050
ag2054
asbasg7
(lp2057
g1879
ag2030
ag2034
ag2038
ag1848
ag1852
ag1861
ag1865
ag1874
ag717
ag32
ag838
ag2004
ag2025
ag2046
ag2050
ag2054
ag1891
ag1895
ag1904
ag1953
ag1957
ag1961
ag1999
ag2012
ag2016
ag2020
ag1912
ag1916
ag1920
ag1924
ag1928
ag1932
ag1936
ag1940
ag1944
ag1948
ag1969
ag1276
ag1973
ag1977
ag1981
ag1989
ag1993
asba(i__main__
Node
p2058
(dp2059
g3
Vn02747177
p2060
sg5
I00
sg6
Nsg7
(lp2061
g2060
asba(i__main__
Node
p2062
(dp2063
g3
Vn03764736
p2064
sg5
I00
sg6
Nsg7
(lp2065
g2064
asba(i__main__
Node
p2066
(dp2067
g3
Vn04548362
p2068
sg5
I00
sg6
Nsg7
(lp2069
g2068
asba(i__main__
Node
p2070
(dp2071
g3
Vn04254120
p2072
sg5
I00
sg6
Nsg7
(lp2073
g2072
asba(i__main__
Node
p2074
(dp2075
g3
Vn03733805
p2076
sg5
I00
sg6
Nsg7
(lp2077
g2076
asba(i__main__
Node
p2078
(dp2079
g3
Vn03871628
p2080
sg5
I00
sg6
Nsg7
(lp2081
g2080
asba(i__main__
Node
p2082
(dp2083
g3
Vn04476259
p2084
sg5
I00
sg6
Nsg7
(lp2085
g2084
asba(i__main__
Node
p2086
(dp2087
g3
Vn03935335
p2088
sg5
I00
sg6
Nsg7
(lp2089
g2088
asba(i__main__
Node
p2090
(dp2091
g3
Vn04597913
p2092
sg5
I00
sg6
Nsg7
(lp2093
g2092
asbasg7
(lp2094
g1675
ag1701
ag1718
ag1417
ag2060
ag2064
ag2068
ag2072
ag2076
ag2080
ag2084
ag2088
ag2092
ag1612
ag1616
ag1620
ag1624
ag1628
ag1637
ag1641
ag1650
ag1654
ag1658
ag1662
ag1666
ag1670
ag1696
ag1709
ag1713
ag1726
ag1730
ag1739
ag1743
ag1768
ag1785
ag1789
ag1793
ag1814
ag1818
ag1835
ag1879
ag2030
ag2034
ag2038
ag1687
ag1691
ag1751
ag1755
ag1759
ag1763
ag692
ag1776
ag1780
ag1801
ag1805
ag1809
ag1826
ag1830
ag1848
ag1852
ag1861
ag1865
ag1874
ag717
ag32
ag838
ag2004
ag2025
ag2046
ag2050
ag2054
ag443
ag447
ag1891
ag1895
ag1904
ag1953
ag1957
ag1961
ag1999
ag2012
ag2016
ag2020
ag1912
ag1916
ag1920
ag1924
ag1928
ag1932
ag1936
ag1940
ag1944
ag1948
ag1969
ag1276
ag1973
ag1977
ag1981
ag1989
ag1993
asba(i__main__
Node
p2095
(dp2096
g3
Vn03100490
p2097
sg5
I00
sg6
(lp2098
(i__main__
Node
p2099
(dp2100
g3
Vn04019101
p2101
sg5
I00
sg6
(lp2102
g657
ag607
asg7
(lp2103
g609
ag663
ag667
ag671
asba(i__main__
Node
p2104
(dp2105
g3
Vn04524313
p2106
sg5
I00
sg6
(lp2107
(i__main__
Node
p2108
(dp2109
g3
Vn03125870
p2110
sg5
I00
sg6
(lp2111
(i__main__
Node
p2112
(dp2113
g3
Vn02686568
p2114
sg5
I00
sg6
(lp2115
(i__main__
Node
p2116
(dp2117
g3
Vn03510583
p2118
sg5
I00
sg6
(lp2119
(i__main__
Node
p2120
(dp2121
g3
Vn04552348
p2122
sg5
I00
sg6
Nsg7
(lp2123
g2122
asba(i__main__
Node
p2124
(dp2125
g3
Vn02690373
p2126
sg5
I00
sg6
Nsg7
(lp2127
g2126
asbasg7
(lp2128
g2122
ag2126
asba(i__main__
Node
p2129
(dp2130
g3
Vn03666917
p2131
sg5
I00
sg6
(lp2132
(i__main__
Node
p2133
(dp2134
g3
Vn02692877
p2135
sg5
I00
sg6
Nsg7
(lp2136
g2135
asba(i__main__
Node
p2137
(dp2138
g3
Vn02782093
p2139
sg5
I00
sg6
Nsg7
(lp2140
g2139
asbasg7
(lp2141
g2135
ag2139
asbasg7
(lp2142
g2122
ag2126
ag2135
ag2139
asba(i__main__
Node
p2143
(dp2144
g3
Vn04530566
p2145
sg5
I00
sg6
(lp2146
(i__main__
Node
p2147
(dp2148
g3
Vn02858304
p2149
sg5
I00
sg6
(lp2150
(i__main__
Node
p2151
(dp2152
g3
Vn03344393
p2153
sg5
I00
sg6
Nsg7
(lp2154
g2153
asba(i__main__
Node
p2155
(dp2156
g3
Vn03447447
p2157
sg5
I00
sg6
Nsg7
(lp2158
g2157
asba(i__main__
Node
p2159
(dp2160
g3
Vn04244997
p2161
sg5
I00
sg6
(lp2162
(i__main__
Node
p2163
(dp2164
g3
Vn02951358
p2165
sg5
I00
sg6
Nsg7
(lp2166
g2165
asba(i__main__
Node
p2167
(dp2168
g3
Vn04612504
p2169
sg5
I00
sg6
Nsg7
(lp2170
g2169
asbasg7
(lp2171
g2165
ag2169
asba(i__main__
Node
p2172
(dp2173
g3
Vn04273569
p2174
sg5
I00
sg6
Nsg7
(lp2175
g2174
asba(i__main__
Node
p2176
(dp2177
g3
Vn03662601
p2178
sg5
I00
sg6
Nsg7
(lp2179
g2178
asbasg7
(lp2180
g2153
ag2157
ag2174
ag2178
ag2165
ag2169
asba(i__main__
Node
p2181
(dp2182
g3
Vn04128837
p2183
sg5
I00
sg6
(lp2184
(i__main__
Node
p2185
(dp2186
g3
Vn04128499
p2187
sg5
I00
sg6
(lp2188
(i__main__
Node
p2189
(dp2190
g3
Vn02981792
p2191
sg5
I00
sg6
Nsg7
(lp2192
g2191
asbag425
asg7
(lp2193
g2191
ag427
asba(i__main__
Node
p2194
(dp2195
g3
Vn04147183
p2196
sg5
I00
sg6
Nsg7
(lp2197
g2196
asbasg7
(lp2198
g2196
ag2191
ag427
asba(i__main__
Node
p2199
(dp2200
g3
Vn04194289
p2201
sg5
I00
sg6
(lp2202
(i__main__
Node
p2203
(dp2204
g3
Vn03947888
p2205
sg5
I00
sg6
Nsg7
(lp2206
g2205
asba(i__main__
Node
p2207
(dp2208
g3
Vn04552696
p2209
sg5
I00
sg6
(lp2210
(i__main__
Node
p2211
(dp2212
g3
Vn02687172
p2213
sg5
I00
sg6
Nsg7
(lp2214
g2213
asba(i__main__
Node
p2215
(dp2216
g3
Vn04347754
p2217
sg5
I00
sg6
Nsg7
(lp2218
g2217
asbasg7
(lp2219
g2213
ag2217
asba(i__main__
Node
p2220
(dp2221
g3
Vn04606251
p2222
sg5
I00
sg6
Nsg7
(lp2223
g2222
asbag799
a(i__main__
Node
p2224
(dp2225
g3
Vn03673027
p2226
sg5
I00
sg6
Nsg7
(lp2227
g2226
asbasg7
(lp2228
g2205
ag2222
ag801
ag2226
ag2213
ag2217
asbasg7
(lp2229
g2153
ag2157
ag2174
ag2178
ag2196
ag2205
ag2222
ag801
ag2226
ag2165
ag2169
ag2191
ag427
ag2213
ag2217
asba(i__main__
Node
p2230
(dp2231
g3
Vn04266014
p2232
sg5
I00
sg6
Nsg7
(lp2233
g2232
asbasg7
(lp2234
g2232
ag2122
ag2126
ag2135
ag2139
ag2153
ag2157
ag2174
ag2178
ag2196
ag2205
ag2222
ag801
ag2226
ag2165
ag2169
ag2191
ag427
ag2213
ag2217
asba(i__main__
Node
p2235
(dp2236
g3
Vn03764276
p2237
sg5
I00
sg6
(lp2238
g2010
ag2018
ag2120
ag2207
asg7
(lp2239
g2012
ag2020
ag2122
ag2213
ag2217
asba(i__main__
Node
p2240
(dp2241
g3
Vn04235291
p2242
sg5
I00
sg6
(lp2243
(i__main__
Node
p2244
(dp2245
g3
Vn02860847
p2246
sg5
I00
sg6
Nsg7
(lp2247
g2246
asba(i__main__
Node
p2248
(dp2249
g3
Vn03218198
p2250
sg5
I00
sg6
Nsg7
(lp2251
g2250
asbasg7
(lp2252
g2246
ag2250
asbag1838
a(i__main__
Node
p2253
(dp2254
g3
Vn03773504
p2255
sg5
I00
sg6
Nsg7
(lp2256
g2255
asbasg7
(lp2257
g2255
ag2232
ag2012
ag2020
ag2122
ag2246
ag2250
ag1879
ag2030
ag2034
ag2038
ag2213
ag2217
ag1848
ag1852
ag1861
ag1865
ag1874
ag717
ag32
ag838
ag2004
ag2025
ag2046
ag2050
ag2054
ag2126
ag2135
ag2139
ag2153
ag2157
ag2174
ag2178
ag2196
ag2205
ag2222
ag801
ag2226
ag1891
ag1895
ag1904
ag1953
ag1957
ag1961
ag1999
ag2016
ag2165
ag2169
ag2191
ag427
ag1912
ag1916
ag1920
ag1924
ag1928
ag1932
ag1936
ag1940
ag1944
ag1948
ag1969
ag1276
ag1973
ag1977
ag1981
ag1989
ag1993
asba(i__main__
Node
p2258
(dp2259
g3
Vn04336792
p2260
sg5
I00
sg6
Nsg7
(lp2261
g2260
asbasg7
(lp2262
g2260
ag609
ag2255
ag663
ag667
ag671
ag2232
ag2012
ag2020
ag2122
ag2246
ag2250
ag1879
ag2030
ag2034
ag2038
ag2213
ag2217
ag1848
ag1852
ag1861
ag1865
ag1874
ag717
ag32
ag838
ag2004
ag2025
ag2046
ag2050
ag2054
ag2126
ag2135
ag2139
ag2153
ag2157
ag2174
ag2178
ag2196
ag2205
ag2222
ag801
ag2226
ag1891
ag1895
ag1904
ag1953
ag1957
ag1961
ag1999
ag2016
ag2165
ag2169
ag2191
ag427
ag1912
ag1916
ag1920
ag1924
ag1928
ag1932
ag1936
ag1940
ag1944
ag1948
ag1969
ag1276
ag1973
ag1977
ag1981
ag1989
ag1993
asba(i__main__
Node
p2263
(dp2264
g3
Vn03183080
p2265
sg5
I00
sg6
(lp2266
(i__main__
Node
p2267
(dp2268
g3
Vn02895606
p2269
sg5
I00
sg6
(lp2270
(i__main__
Node
p2271
(dp2272
g3
Vn03868863
p2273
sg5
I00
sg6
Nsg7
(lp2274
g2273
asba(i__main__
Node
p2275
(dp2276
g3
Vn04251144
p2277
sg5
I00
sg6
Nsg7
(lp2278
g2277
asbasg7
(lp2279
g2273
ag2277
asba(i__main__
Node
p2280
(dp2281
g3
Vn03277771
p2282
sg5
I00
sg6
(lp2283
(i__main__
Node
p2284
(dp2285
g3
Vn03793489
p2286
sg5
I00
sg6
Nsg7
(lp2287
g2286
asba(i__main__
Node
p2288
(dp2289
g3
Vn04152593
p2290
sg5
I00
sg6
Nsg7
(lp2291
g2290
asbasg7
(lp2292
g2286
ag2290
asbag509
a(i__main__
Node
p2293
(dp2294
g3
Vn03508101
p2295
sg5
I00
sg6
(lp2296
(i__main__
Node
p2297
(dp2298
g3
Vn04265275
p2299
sg5
I00
sg6
Nsg7
(lp2300
g2299
asba(i__main__
Node
p2301
(dp2302
g3
Vn04330267
p2303
sg5
I00
sg6
Nsg7
(lp2304
g2303
asbasg7
(lp2305
g2299
ag2303
asba(i__main__
Node
p2306
(dp2307
g3
Vn03574816
p2308
sg5
I00
sg6
(lp2309
(i__main__
Node
p2310
(dp2311
g3
Vn03733925
p2312
sg5
I00
sg6
(lp2313
(i__main__
Node
p2314
(dp2315
g3
Vn02794156
p2316
sg5
I00
sg6
Nsg7
(lp2317
g2316
asba(i__main__
Node
p2318
(dp2319
g3
Vn04141975
p2320
sg5
I00
sg6
Nsg7
(lp2321
g2320
asba(i__main__
Node
p2322
(dp2323
g3
Vn04437953
p2324
sg5
I00
sg6
(lp2325
(i__main__
Node
p2326
(dp2327
g3
Vn03046257
p2328
sg5
I00
sg6
(lp2329
(i__main__
Node
p2330
(dp2331
g3
Vn02708093
p2332
sg5
I00
sg6
Nsg7
(lp2333
g2332
asbag803
ag1266
asg7
(lp2334
g2332
ag805
ag1268
asba(i__main__
Node
p2335
(dp2336
g3
Vn04355338
p2337
sg5
I00
sg6
Nsg7
(lp2338
g2337
asbag698
a(i__main__
Node
p2339
(dp2340
g3
Vn03544143
p2341
sg5
I00
sg6
Nsg7
(lp2342
g2341
asba(i__main__
Node
p2343
(dp2344
g3
Vn03197337
p2345
sg5
I00
sg6
Nsg7
(lp2346
g2345
asbasg7
(lp2347
g2337
ag2341
ag2345
ag2332
ag805
ag1268
ag704
ag708
asba(i__main__
Node
p2348
(dp2349
g3
Vn04118776
p2350
sg5
I00
sg6
Nsg7
(lp2351
g2350
asba(i__main__
Node
p2352
(dp2353
g3
Vn03841143
p2354
sg5
I00
sg6
Nsg7
(lp2355
g2354
asbasg7
(lp2356
g2316
ag2320
ag2350
ag2354
ag2337
ag2341
ag2345
ag2332
ag805
ag1268
ag704
ag708
asba(i__main__
Node
p2357
(dp2358
g3
Vn03739693
p2359
sg5
I00
sg6
(lp2360
(i__main__
Node
p2361
(dp2362
g3
Vn04317175
p2363
sg5
I00
sg6
Nsg7
(lp2364
g2363
asba(i__main__
Node
p2365
(dp2366
g3
Vn04376876
p2367
sg5
I00
sg6
Nsg7
(lp2368
g2367
asbasg7
(lp2369
g2363
ag2367
asba(i__main__
Node
p2370
(dp2371
g3
Vn03852280
p2372
sg5
I00
sg6
(lp2373
(i__main__
Node
p2374
(dp2375
g3
Vn02841315
p2376
sg5
I00
sg6
Nsg7
(lp2377
g2376
asba(i__main__
Node
p2378
(dp2379
g3
Vn04009552
p2380
sg5
I00
sg6
Nsg7
(lp2381
g2380
asba(i__main__
Node
p2382
(dp2383
g3
Vn04356056
p2384
sg5
I00
sg6
Nsg7
(lp2385
g2384
asbasg7
(lp2386
g2376
ag2380
ag2384
asba(i__main__
Node
p2387
(dp2388
g3
Vn04565375
p2389
sg5
I00
sg6
(lp2390
(i__main__
Node
p2391
(dp2392
g3
Vn02879718
p2393
sg5
I00
sg6
Nsg7
(lp2394
g2393
asba(i__main__
Node
p2395
(dp2396
g3
Vn03467984
p2397
sg5
I00
sg6
(lp2398
(i__main__
Node
p2399
(dp2400
g3
Vn02950826
p2401
sg5
I00
sg6
Nsg7
(lp2402
g2401
asba(i__main__
Node
p2403
(dp2404
g3
Vn03343853
p2405
sg5
I00
sg6
(lp2406
(i__main__
Node
p2407
(dp2408
g3
Vn04090263
p2409
sg5
I00
sg6
Nsg7
(lp2410
g2409
asba(i__main__
Node
p2411
(dp2412
g3
Vn04086273
p2413
sg5
I00
sg6
Nsg7
(lp2414
g2413
asba(i__main__
Node
p2415
(dp2416
g3
Vn02749479
p2417
sg5
I00
sg6
Nsg7
(lp2418
g2417
asbag2415
asg7
(lp2419
g2409
ag2413
ag2417
asbasg7
(lp2420
g2401
ag2409
ag2413
ag2417
asbag2253
a(i__main__
Node
p2421
(dp2422
g3
Vn04008634
p2423
sg5
I00
sg6
Nsg7
(lp2424
g2423
asbasg7
(lp2425
g2393
ag2255
ag2423
ag2401
ag2409
ag2413
ag2417
asba(i__main__
Node
p2426
(dp2427
g3
Vn03467068
p2428
sg5
I00
sg6
Nsg7
(lp2429
g2428
asba(i__main__
Node
p2430
(dp2431
g3
Vn03709206
p2432
sg5
I00
sg6
(lp2433
(i__main__
Node
p2434
(dp2435
g3
Vn04044716
p2436
sg5
I00
sg6
Nsg7
(lp2437
g2436
asba(i__main__
Node
p2438
(dp2439
g3
Vn03692522
p2440
sg5
I00
sg6
Nsg7
(lp2441
g2440
asbasg7
(lp2442
g2436
ag2440
asbag417
asg7
(lp2443
g2428
ag419
ag2316
ag2320
ag2350
ag2354
ag2363
ag2367
ag2376
ag2380
ag2384
ag2393
ag2255
ag2423
ag2436
ag2440
ag2337
ag2341
ag2345
ag2401
ag2332
ag805
ag1268
ag704
ag708
ag2409
ag2413
ag2417
asba(i__main__
Node
p2444
(dp2445
g3
Vn03614007
p2446
sg5
I00
sg6
(lp2447
(i__main__
Node
p2448
(dp2449
g3
Vn03085013
p2450
sg5
I00
sg6
Nsg7
(lp2451
g2450
asba(i__main__
Node
p2452
(dp2453
g3
Vn04505470
p2454
sg5
I00
sg6
Nsg7
(lp2455
g2454
asbasg7
(lp2456
g2450
ag2454
asba(i__main__
Node
p2457
(dp2458
g3
Vn03666591
p2459
sg5
I00
sg6
Nsg7
(lp2460
g2459
asba(i__main__
Node
p2461
(dp2462
g3
Vn03699975
p2463
sg5
I00
sg6
(lp2464
(i__main__
Node
p2465
(dp2466
g3
Vn02977058
p2467
sg5
I00
sg6
Nsg7
(lp2468
g2467
asba(i__main__
Node
p2469
(dp2470
g3
Vn03082979
p2471
sg5
I00
sg6
(lp2472
(i__main__
Node
p2473
(dp2474
g3
Vn06359193
p2475
sg5
I00
sg6
Nsg7
(lp2476
g2475
asba(i__main__
Node
p2477
(dp2478
g3
Vn04238763
p2479
sg5
I00
sg6
Nsg7
(lp2480
g2479
asba(i__main__
Node
p2481
(dp2482
g3
Vn03918480
p2483
sg5
I00
sg6
(lp2484
(i__main__
Node
p2485
(dp2486
g3
Vn03180011
p2487
sg5
I00
sg6
Nsg7
(lp2488
g2487
asba(i__main__
Node
p2489
(dp2490
g3
Vn03985232
p2491
sg5
I00
sg6
(lp2492
(i__main__
Node
p2493
(dp2494
g3
Vn03485407
p2495
sg5
I00
sg6
Nsg7
(lp2496
g2495
asba(i__main__
Node
p2497
(dp2498
g3
Vn03642806
p2499
sg5
I00
sg6
Nsg7
(lp2500
g2499
asba(i__main__
Node
p2501
(dp2502
g3
Vn03832673
p2503
sg5
I00
sg6
Nsg7
(lp2504
g2503
asbasg7
(lp2505
g2495
ag2499
ag2503
asbasg7
(lp2506
g2487
ag2495
ag2499
ag2503
asbasg7
(lp2507
g2475
ag2479
ag2487
ag2495
ag2499
ag2503
asbag844
a(i__main__
Node
p2508
(dp2509
g3
Vn03997484
p2510
sg5
I00
sg6
(lp2511
g603
a(i__main__
Node
p2512
(dp2513
g3
Vn03000684
p2514
sg5
I00
sg6
Nsg7
(lp2515
g2514
asbasg7
(lp2516
g605
ag2514
asba(i__main__
Node
p2517
(dp2518
g3
Vn04243941
p2519
sg5
I00
sg6
(lp2520
(i__main__
Node
p2521
(dp2522
g3
Vn04243546
p2523
sg5
I00
sg6
Nsg7
(lp2524
g2523
asba(i__main__
Node
p2525
(dp2526
g3
Vn04525305
p2527
sg5
I00
sg6
Nsg7
(lp2528
g2527
asbasg7
(lp2529
g2523
ag2527
asba(i__main__
Node
p2530
(dp2531
g3
Vn02666196
p2532
sg5
I00
sg6
Nsg7
(lp2533
g2532
asba(i__main__
Node
p2534
(dp2535
g3
Vn04004767
p2536
sg5
I00
sg6
Nsg7
(lp2537
g2536
asbag1176
asg7
(lp2538
g2467
ag2532
ag2536
ag1178
ag2475
ag2479
ag850
ag854
ag605
ag2514
ag2523
ag2527
ag2487
ag2495
ag2499
ag2503
asba(i__main__
Node
p2539
(dp2540
g3
Vn03738472
p2541
sg5
I00
sg6
(lp2542
g623
a(i__main__
Node
p2543
(dp2544
g3
Vn03736970
p2545
sg5
I00
sg6
(lp2546
(i__main__
Node
p2547
(dp2548
g3
Vn03532672
p2549
sg5
I00
sg6
Nsg7
(lp2550
g2549
asba(i__main__
Node
p2551
(dp2552
g3
Vn04371774
p2553
sg5
I00
sg6
Nsg7
(lp2554
g2553
asba(i__main__
Node
p2555
(dp2556
g3
Vn04574999
p2557
sg5
I00
sg6
(lp2558
(i__main__
Node
p2559
(dp2560
g3
Vn02974003
p2561
sg5
I00
sg6
Nsg7
(lp2562
g2561
asba(i__main__
Node
p2563
(dp2564
g3
Vn03874293
p2565
sg5
I00
sg6
Nsg7
(lp2566
g2565
asba(i__main__
Node
p2567
(dp2568
g3
Vn03944341
p2569
sg5
I00
sg6
Nsg7
(lp2570
g2569
asba(i__main__
Node
p2571
(dp2572
g3
Vn03992509
p2573
sg5
I00
sg6
Nsg7
(lp2574
g2573
asbasg7
(lp2575
g2561
ag2565
ag2569
ag2573
asba(i__main__
Node
p2576
(dp2577
g3
Vn03425413
p2578
sg5
I00
sg6
Nsg7
(lp2579
g2578
asba(i__main__
Node
p2580
(dp2581
g3
Vn02966193
p2582
sg5
I00
sg6
Nsg7
(lp2583
g2582
asba(i__main__
Node
p2584
(dp2585
g3
Vn04067472
p2586
sg5
I00
sg6
Nsg7
(lp2587
g2586
asbasg7
(lp2588
g2549
ag2553
ag2578
ag2582
ag2586
ag2561
ag2565
ag2569
ag2573
asba(i__main__
Node
p2589
(dp2590
g3
Vn04040759
p2591
sg5
I00
sg6
Nsg7
(lp2592
g2591
asba(i__main__
Node
p2593
(dp2594
g3
Vn04019541
p2595
sg5
I00
sg6
Nsg7
(lp2596
g2595
asbasg7
(lp2597
g2591
ag2595
ag629
ag633
ag2549
ag2553
ag2578
ag2582
ag2586
ag2561
ag2565
ag2569
ag2573
asba(i__main__
Node
p2598
(dp2599
g3
Vn03800933
p2600
sg5
I00
sg6
(lp2601
(i__main__
Node
p2602
(dp2603
g3
Vn03614532
p2604
sg5
I00
sg6
(lp2605
g500
a(i__main__
Node
p2606
(dp2607
g3
Vn03854065
p2608
sg5
I00
sg6
Nsg7
(lp2609
g2608
asba(i__main__
Node
p2610
(dp2611
g3
Vn03928116
p2612
sg5
I00
sg6
(lp2613
(i__main__
Node
p2614
(dp2615
g3
Vn03452741
p2616
sg5
I00
sg6
Nsg7
(lp2617
g2616
asba(i__main__
Node
p2618
(dp2619
g3
Vn04515003
p2620
sg5
I00
sg6
Nsg7
(lp2621
g2620
asbasg7
(lp2622
g2616
ag2620
asbasg7
(lp2623
g502
ag2608
ag2616
ag2620
asba(i__main__
Node
p2624
(dp2625
g3
Vn03915437
p2626
sg5
I00
sg6
(lp2627
(i__main__
Node
p2628
(dp2629
g3
Vn03017168
p2630
sg5
I00
sg6
Nsg7
(lp2631
g2630
asba(i__main__
Node
p2632
(dp2633
g3
Vn03249569
p2634
sg5
I00
sg6
Nsg7
(lp2635
g2634
asba(i__main__
Node
p2636
(dp2637
g3
Vn03447721
p2638
sg5
I00
sg6
Nsg7
(lp2639
g2638
asba(i__main__
Node
p2640
(dp2641
g3
Vn03720891
p2642
sg5
I00
sg6
Nsg7
(lp2643
g2642
asba(i__main__
Node
p2644
(dp2645
g3
Vn03721384
p2646
sg5
I00
sg6
Nsg7
(lp2647
g2646
asbag2610
a(i__main__
Node
p2648
(dp2649
g3
Vn04311174
p2650
sg5
I00
sg6
Nsg7
(lp2651
g2650
asbasg7
(lp2652
g2630
ag2634
ag2638
ag2642
ag2646
ag2650
ag2616
ag2620
asba(i__main__
Node
p2653
(dp2654
g3
Vn04338517
p2655
sg5
I00
sg6
(lp2656
g1204
a(i__main__
Node
p2657
(dp2658
g3
Vn02880546
p2659
sg5
I00
sg6
(lp2660
g1
a(i__main__
Node
p2661
(dp2662
g3
Vn04536866
p2663
sg5
I00
sg6
Nsg7
(lp2664
g2663
asbasg7
(lp2665
g4
ag2663
asba(i__main__
Node
p2666
(dp2667
g3
Vn03467517
p2668
sg5
I00
sg6
(lp2669
(i__main__
Node
p2670
(dp2671
g3
Vn02676566
p2672
sg5
I00
sg6
Nsg7
(lp2673
g2672
asba(i__main__
Node
p2674
(dp2675
g3
Vn03272010
p2676
sg5
I00
sg6
Nsg7
(lp2677
g2676
asbasg7
(lp2678
g2672
ag2676
asbag2610
a(i__main__
Node
p2679
(dp2680
g3
Vn03495258
p2681
sg5
I00
sg6
Nsg7
(lp2682
g2681
asbasg7
(lp2683
g1206
ag2681
ag4
ag2663
ag2672
ag2676
ag2616
ag2620
asba(i__main__
Node
p2684
(dp2685
g3
Vn04586932
p2686
sg5
I00
sg6
(lp2687
(i__main__
Node
p2688
(dp2689
g3
Vn02891788
p2690
sg5
I00
sg6
(lp2691
(i__main__
Node
p2692
(dp2693
g3
Vn03110669
p2694
sg5
I00
sg6
Nsg7
(lp2695
g2694
asba(i__main__
Node
p2696
(dp2697
g3
Vn03394916
p2698
sg5
I00
sg6
Nsg7
(lp2699
g2698
asba(i__main__
Node
p2700
(dp2701
g3
Vn04487394
p2702
sg5
I00
sg6
Nsg7
(lp2703
g2702
asbasg7
(lp2704
g2694
ag2698
ag2702
asbag496
a(i__main__
Node
p2705
(dp2706
g3
Vn03840681
p2707
sg5
I00
sg6
Nsg7
(lp2708
g2707
asbag2606
a(i__main__
Node
p2709
(dp2710
g3
Vn04598582
p2711
sg5
I00
sg6
(lp2712
(i__main__
Node
p2713
(dp2714
g3
Vn02817799
p2715
sg5
I00
sg6
(lp2716
(i__main__
Node
p2717
(dp2718
g3
Vn03228016
p2719
sg5
I00
sg6
(lp2720
(i__main__
Node
p2721
(dp2722
g3
Vn02804610
p2723
sg5
I00
sg6
Nsg7
(lp2724
g2723
asba(i__main__
Node
p2725
(dp2726
g3
Vn03838899
p2727
sg5
I00
sg6
Nsg7
(lp2728
g2727
asbasg7
(lp2729
g2723
ag2727
asba(i__main__
Node
p2730
(dp2731
g3
Vn04141076
p2732
sg5
I00
sg6
Nsg7
(lp2733
g2732
asbasg7
(lp2734
g2732
ag2723
ag2727
asba(i__main__
Node
p2735
(dp2736
g3
Vn03372029
p2737
sg5
I00
sg6
Nsg7
(lp2738
g2737
asbasg7
(lp2739
g2737
ag2732
ag2723
ag2727
asba(i__main__
Node
p2740
(dp2741
g3
Vn03884397
p2742
sg5
I00
sg6
Nsg7
(lp2743
g2742
asbasg7
(lp2744
g2707
ag2608
ag2742
ag2694
ag2698
ag2702
ag502
ag506
ag2737
ag2732
ag2723
ag2727
asbasg7
(lp2745
g502
ag2608
ag2630
ag2634
ag2638
ag2642
ag2646
ag2650
ag1206
ag2681
ag2707
ag2742
ag2616
ag2620
ag4
ag2663
ag2672
ag2676
ag2694
ag2698
ag2702
ag506
ag2737
ag2732
ag2723
ag2727
asba(i__main__
Node
p2746
(dp2747
g3
Vn03929660
p2748
sg5
I00
sg6
Nsg7
(lp2749
g2748
asba(i__main__
Node
p2750
(dp2751
g3
Vn04069276
p2752
sg5
I00
sg6
(lp2753
g774
a(i__main__
Node
p2754
(dp2755
g3
Vn02965783
p2756
sg5
I00
sg6
Nsg7
(lp2757
g2756
asbasg7
(lp2758
g776
ag2756
asba(i__main__
Node
p2759
(dp2760
g3
Vn04074963
p2761
sg5
I00
sg6
Nsg7
(lp2762
g2761
asba(i__main__
Node
p2763
(dp2764
g3
Vn04081844
p2765
sg5
I00
sg6
(lp2766
(i__main__
Node
p2767
(dp2768
g3
Vn03323703
p2769
sg5
I00
sg6
(lp2770
(i__main__
Node
p2771
(dp2772
g3
Vn02910353
p2773
sg5
I00
sg6
Nsg7
(lp2774
g2773
asba(i__main__
Node
p2775
(dp2776
g3
Vn03627232
p2777
sg5
I00
sg6
Nsg7
(lp2778
g2777
asbag50
a(i__main__
Node
p2779
(dp2780
g3
Vn03804744
p2781
sg5
I00
sg6
Nsg7
(lp2782
g2781
asba(i__main__
Node
p2783
(dp2784
g3
Vn04153751
p2785
sg5
I00
sg6
Nsg7
(lp2786
g2785
asbag433
a(i__main__
Node
p2787
(dp2788
g3
Vn04127249
p2789
sg5
I00
sg6
Nsg7
(lp2790
g2789
asbasg7
(lp2791
g2773
ag2777
ag2781
ag2785
ag435
ag2789
ag56
ag60
asba(i__main__
Node
p2792
(dp2793
g3
Vn03803284
p2794
sg5
I00
sg6
Nsg7
(lp2795
g2794
asbag1129
a(i__main__
Node
p2796
(dp2797
g3
Vn03208938
p2798
sg5
I00
sg6
Nsg7
(lp2799
g2798
asbasg7
(lp2800
g2794
ag1131
ag2798
ag2773
ag2777
ag2781
ag2785
ag435
ag2789
ag56
ag60
asbag569
a(i__main__
Node
p2801
(dp2802
g3
Vn04359589
p2803
sg5
I00
sg6
(lp2804
(i__main__
Node
p2805
(dp2806
g3
Vn03933933
p2807
sg5
I00
sg6
Nsg7
(lp2808
g2807
asbag873
ag807
a(i__main__
Node
p2809
(dp2810
g3
Vn03733131
p2811
sg5
I00
sg6
Nsg7
(lp2812
g2811
asbasg7
(lp2813
g2807
ag875
ag809
ag2811
asba(i__main__
Node
p2814
(dp2815
g3
Vn04474466
p2816
sg5
I00
sg6
(lp2817
(i__main__
Node
p2818
(dp2819
g3
Vn03794056
p2820
sg5
I00
sg6
Nsg7
(lp2821
g2820
asba(i__main__
Node
p2822
(dp2823
g3
Vn04275548
p2824
sg5
I00
sg6
Nsg7
(lp2825
g2824
asbasg7
(lp2826
g2820
ag2824
asba(i__main__
Node
p2827
(dp2828
g3
Vn04579432
p2829
sg5
I00
sg6
Nsg7
(lp2830
g2829
asba(i__main__
Node
p2831
(dp2832
g3
Vn04592741
p2833
sg5
I00
sg6
Nsg7
(lp2834
g2833
asba(i__main__
Node
p2835
(dp2836
g3
Vn03876231
p2837
sg5
I00
sg6
Nsg7
(lp2838
g2837
asbag1198
a(i__main__
Node
p2839
(dp2840
g3
Vn03271574
p2841
sg5
I00
sg6
Nsg7
(lp2842
g2841
asba(i__main__
Node
p2843
(dp2844
g3
Vn03126707
p2845
sg5
I00
sg6
Nsg7
(lp2846
g2845
asba(i__main__
Node
p2847
(dp2848
g3
Vn04228054
p2849
sg5
I00
sg6
Nsg7
(lp2850
g2849
asbag2827
a(i__main__
Node
p2851
(dp2852
g3
Vn03274561
p2853
sg5
I00
sg6
(lp2854
(i__main__
Node
p2855
(dp2856
g3
Vn03691459
p2857
sg5
I00
sg6
Nsg7
(lp2858
g2857
asba(i__main__
Node
p2859
(dp2860
g3
Vn03759954
p2861
sg5
I00
sg6
Nsg7
(lp2862
g2861
asbasg7
(lp2863
g2857
ag2861
asbag1270
a(i__main__
Node
p2864
(dp2865
g3
Vn04355933
p2866
sg5
I00
sg6
Nsg7
(lp2867
g2866
asbasg7
(lp2868
g2459
ag2748
ag2761
ag2829
ag2833
ag2837
ag1200
ag2841
ag2845
ag2849
ag1272
ag2866
ag2273
ag2277
ag2286
ag2290
ag515
ag519
ag2299
ag2303
ag2428
ag419
ag2450
ag2454
ag2467
ag2532
ag2536
ag1178
ag2591
ag2595
ag776
ag2756
ag2794
ag1131
ag2798
ag592
ag2807
ag875
ag809
ag2811
ag2820
ag2824
ag2857
ag2861
ag2316
ag2320
ag2350
ag2354
ag2363
ag2367
ag2376
ag2380
ag2384
ag2393
ag2255
ag2423
ag2436
ag2440
ag2475
ag2479
ag850
ag854
ag605
ag2514
ag2523
ag2527
ag629
ag633
ag2549
ag2553
ag2578
ag2582
ag2586
ag502
ag2608
ag2630
ag2634
ag2638
ag2642
ag2646
ag2650
ag1206
ag2681
ag2707
ag2742
ag2773
ag2777
ag2781
ag2785
ag435
ag2789
ag579
ag583
ag587
ag2337
ag2341
ag2345
ag2401
ag2487
ag2561
ag2565
ag2569
ag2573
ag2616
ag2620
ag4
ag2663
ag2672
ag2676
ag2694
ag2698
ag2702
ag506
ag2737
ag56
ag60
ag2332
ag805
ag1268
ag704
ag708
ag2409
ag2413
ag2417
ag2495
ag2499
ag2503
ag2732
ag2723
ag2727
asba(i__main__
Node
p2869
(dp2870
g3
Vn03294048
p2871
sg5
I00
sg6
(lp2872
(i__main__
Node
p2873
(dp2874
g3
Vn03278248
p2875
sg5
I00
sg6
(lp2876
(i__main__
Node
p2877
(dp2878
g3
Vn02979186
p2879
sg5
I00
sg6
Nsg7
(lp2880
g2879
asba(i__main__
Node
p2881
(dp2882
g3
Vn02988304
p2883
sg5
I00
sg6
Nsg7
(lp2884
g2883
asba(i__main__
Node
p2885
(dp2886
g3
Vn03777754
p2887
sg5
I00
sg6
Nsg7
(lp2888
g2887
asba(i__main__
Node
p2889
(dp2890
g3
Vn03782006
p2891
sg5
I00
sg6
Nsg7
(lp2892
g2891
asba(i__main__
Node
p2893
(dp2894
g3
Vn03857828
p2895
sg5
I00
sg6
Nsg7
(lp2896
g2895
asba(i__main__
Node
p2897
(dp2898
g3
Vn03916720
p2899
sg5
I00
sg6
(lp2900
(i__main__
Node
p2901
(dp2902
g3
Vn03163973
p2903
sg5
I00
sg6
(lp2904
g2448
ag627
asg7
(lp2905
g2450
ag629
asbag2534
asg7
(lp2906
g2536
ag2450
ag629
asba(i__main__
Node
p2907
(dp2908
g3
Vn04392985
p2909
sg5
I00
sg6
Nsg7
(lp2910
g2909
asba(i__main__
Node
p2911
(dp2912
g3
Vn04401088
p2913
sg5
I00
sg6
(lp2914
(i__main__
Node
p2915
(dp2916
g3
Vn03187595
p2917
sg5
I00
sg6
Nsg7
(lp2918
g2917
asba(i__main__
Node
p2919
(dp2920
g3
Vn03902125
p2921
sg5
I00
sg6
Nsg7
(lp2922
g2921
asba(i__main__
Node
p2923
(dp2924
g3
Vn02992529
p2925
sg5
I00
sg6
Nsg7
(lp2926
g2925
asbasg7
(lp2927
g2917
ag2921
ag2925
asba(i__main__
Node
p2928
(dp2929
g3
Vn03584254
p2930
sg5
I00
sg6
Nsg7
(lp2931
g2930
asbasg7
(lp2932
g2879
ag2883
ag2887
ag2891
ag2895
ag2909
ag2930
ag2536
ag2917
ag2921
ag2925
ag2450
ag629
asba(i__main__
Node
p2933
(dp2934
g3
Vn03414162
p2935
sg5
I00
sg6
(lp2936
(i__main__
Node
p2937
(dp2938
g3
Vn02778669
p2939
sg5
I00
sg6
(lp2940
(i__main__
Node
p2941
(dp2942
g3
Vn02799071
p2943
sg5
I00
sg6
Nsg7
(lp2944
g2943
asba(i__main__
Node
p2945
(dp2946
g3
Vn02802426
p2947
sg5
I00
sg6
Nsg7
(lp2948
g2947
asba(i__main__
Node
p2949
(dp2950
g3
Vn03134739
p2951
sg5
I00
sg6
Nsg7
(lp2952
g2951
asba(i__main__
Node
p2953
(dp2954
g3
Vn03445777
p2955
sg5
I00
sg6
Nsg7
(lp2956
g2955
asba(i__main__
Node
p2957
(dp2958
g3
Vn03942813
p2959
sg5
I00
sg6
Nsg7
(lp2960
g2959
asba(i__main__
Node
p2961
(dp2962
g3
Vn04023962
p2963
sg5
I00
sg6
Nsg7
(lp2964
g2963
asba(i__main__
Node
p2965
(dp2966
g3
Vn04118538
p2967
sg5
I00
sg6
Nsg7
(lp2968
g2967
asbag611
a(i__main__
Node
p2969
(dp2970
g3
Vn04409515
p2971
sg5
I00
sg6
Nsg7
(lp2972
g2971
asba(i__main__
Node
p2973
(dp2974
g3
Vn04540053
p2975
sg5
I00
sg6
Nsg7
(lp2976
g2975
asbasg7
(lp2977
g2943
ag2947
ag2951
ag2955
ag2959
ag2963
ag2967
ag613
ag2971
ag2975
asba(i__main__
Node
p2978
(dp2979
g3
Vn03982430
p2980
sg5
I00
sg6
Nsg7
(lp2981
g2980
asba(i__main__
Node
p2982
(dp2983
g3
Vn04028315
p2984
sg5
I00
sg6
(lp2985
(i__main__
Node
p2986
(dp2987
g3
Vn06785654
p2988
sg5
I00
sg6
Nsg7
(lp2989
g2988
asba(i__main__
Node
p2990
(dp2991
g3
Vn03598930
p2992
sg5
I00
sg6
Nsg7
(lp2993
g2992
asbasg7
(lp2994
g2988
ag2992
asbasg7
(lp2995
g2980
ag2943
ag2947
ag2951
ag2955
ag2959
ag2963
ag2967
ag613
ag2971
ag2975
ag2988
ag2992
asba(i__main__
Node
p2996
(dp2997
g3
Vn03430959
p2998
sg5
I00
sg6
(lp2999
(i__main__
Node
p3000
(dp3001
g3
Vn02966687
p3002
sg5
I00
sg6
Nsg7
(lp3003
g3002
asba(i__main__
Node
p3004
(dp3005
g3
Vn03240683
p3006
sg5
I00
sg6
Nsg7
(lp3007
g3006
asbasg7
(lp3008
g3002
ag3006
asba(i__main__
Node
p3009
(dp3010
g3
Vn04285146
p3011
sg5
I00
sg6
(lp3012
(i__main__
Node
p3013
(dp3014
g3
Vn03446832
p3015
sg5
I00
sg6
(lp3016
g2953
ag1955
asg7
(lp3017
g2955
ag1957
asba(i__main__
Node
p3018
(dp3019
g3
Vn03472232
p3020
sg5
I00
sg6
(lp3021
(i__main__
Node
p3022
(dp3023
g3
Vn02777292
p3024
sg5
I00
sg6
Nsg7
(lp3025
g3024
asba(i__main__
Node
p3026
(dp3027
g3
Vn03535780
p3028
sg5
I00
sg6
Nsg7
(lp3029
g3028
asba(i__main__
Node
p3030
(dp3031
g3
Vn03888605
p3032
sg5
I00
sg6
Nsg7
(lp3033
g3032
asbasg7
(lp3034
g3024
ag3028
ag3032
asbag644
ag2941
ag2945
ag2949
asg7
(lp3035
g2943
ag2947
ag2951
ag2955
ag1957
ag3024
ag3028
ag3032
ag650
ag654
asba(i__main__
Node
p3036
(dp3037
g3
Vn02942699
p3038
sg5
I00
sg6
(lp3039
(i__main__
Node
p3040
(dp3041
g3
Vn03976467
p3042
sg5
I00
sg6
Nsg7
(lp3043
g3042
asba(i__main__
Node
p3044
(dp3045
g3
Vn04069434
p3046
sg5
I00
sg6
Nsg7
(lp3047
g3046
asbasg7
(lp3048
g3042
ag3046
asba(i__main__
Node
p3049
(dp3050
g3
Vn03888257
p3051
sg5
I00
sg6
Nsg7
(lp3052
g3051
asba(i__main__
Node
p3053
(dp3054
g3
Vn03924679
p3055
sg5
I00
sg6
Nsg7
(lp3056
g3055
asbag2230
asg7
(lp3057
g3051
ag3055
ag2232
ag2879
ag2883
ag2887
ag2891
ag2895
ag2909
ag2930
ag2980
ag3002
ag3006
ag2943
ag2947
ag2951
ag3042
ag3046
ag2536
ag2917
ag2921
ag2925
ag2955
ag2959
ag2963
ag2967
ag613
ag2971
ag2975
ag2988
ag2992
ag1957
ag3024
ag3028
ag3032
ag650
ag654
ag2450
ag629
asba(i__main__
Node
p3058
(dp3059
g3
Vn03405265
p3060
sg5
I00
sg6
(lp3061
g1389
a(i__main__
Node
p3062
(dp3063
g3
Vn03405725
p3064
sg5
I00
sg6
(lp3065
(i__main__
Node
p3066
(dp3067
g3
Vn02766320
p3068
sg5
I00
sg6
(lp3069
(i__main__
Node
p3070
(dp3071
g3
Vn02804414
p3072
sg5
I00
sg6
Nsg7
(lp3073
g3072
asba(i__main__
Node
p3074
(dp3075
g3
Vn03125729
p3076
sg5
I00
sg6
Nsg7
(lp3077
g3076
asba(i__main__
Node
p3078
(dp3079
g3
Vn03131574
p3080
sg5
I00
sg6
Nsg7
(lp3081
g3080
asbasg7
(lp3082
g3072
ag3076
ag3080
asba(i__main__
Node
p3083
(dp3084
g3
Vn02870880
p3085
sg5
I00
sg6
Nsg7
(lp3086
g3085
asbag811
a(i__main__
Node
p3087
(dp3088
g3
Vn04161981
p3089
sg5
I00
sg6
(lp3090
(i__main__
Node
p3091
(dp3092
g3
Vn03001627
p3093
sg5
I00
sg6
(lp3094
(i__main__
Node
p3095
(dp3096
g3
Vn02791124
p3097
sg5
I00
sg6
Nsg7
(lp3098
g3097
asba(i__main__
Node
p3099
(dp3100
g3
Vn03376595
p3101
sg5
I00
sg6
Nsg7
(lp3102
g3101
asba(i__main__
Node
p3103
(dp3104
g3
Vn04099969
p3105
sg5
I00
sg6
Nsg7
(lp3106
g3105
asba(i__main__
Node
p3107
(dp3108
g3
Vn04429376
p3109
sg5
I00
sg6
Nsg7
(lp3110
g3109
asbasg7
(lp3111
g3097
ag3101
ag3105
ag3109
asba(i__main__
Node
p3112
(dp3113
g3
Vn04447861
p3114
sg5
I00
sg6
Nsg7
(lp3115
g3114
asba(i__main__
Node
p3116
(dp3117
g3
Vn03891251
p3118
sg5
I00
sg6
Nsg7
(lp3119
g3118
asba(i__main__
Node
p3120
(dp3121
g3
Vn04344873
p3122
sg5
I00
sg6
Nsg7
(lp3123
g3122
asbasg7
(lp3124
g3114
ag3118
ag3122
ag3097
ag3101
ag3105
ag3109
asba(i__main__
Node
p3125
(dp3126
g3
Vn04379243
p3127
sg5
I00
sg6
(lp3128
(i__main__
Node
p3129
(dp3130
g3
Vn03179701
p3131
sg5
I00
sg6
Nsg7
(lp3132
g3131
asbag2978
asg7
(lp3133
g3131
ag2980
asbag9
a(i__main__
Node
p3134
(dp3135
g3
Vn03016953
p3136
sg5
I00
sg6
Nsg7
(lp3137
g3136
asba(i__main__
Node
p3138
(dp3139
g3
Vn04380533
p3140
sg5
I00
sg6
Nsg7
(lp3141
g3140
asba(i__main__
Node
p3142
(dp3143
g3
Vn03337140
p3144
sg5
I00
sg6
Nsg7
(lp3145
g3144
asba(i__main__
Node
p3146
(dp3147
g3
Vn03201208
p3148
sg5
I00
sg6
Nsg7
(lp3149
g3148
asba(i__main__
Node
p3150
(dp3151
g3
Vn03290653
p3152
sg5
I00
sg6
Nsg7
(lp3153
g3152
asba(i__main__
Node
p3154
(dp3155
g3
Vn03388549
p3156
sg5
I00
sg6
Nsg7
(lp3157
g3156
asbasg7
(lp3158
g3085
ag11
ag3136
ag3140
ag3144
ag3148
ag3152
ag3156
ag3072
ag3076
ag3080
ag817
ag821
ag3114
ag3118
ag3122
ag3131
ag2980
ag3097
ag3101
ag3105
ag3109
asbag1324
asg7
(lp3159
g1326
ag1395
ag1399
ag3085
ag11
ag3136
ag3140
ag3144
ag3148
ag3152
ag3156
ag3072
ag3076
ag3080
ag817
ag821
ag3114
ag3118
ag3122
ag3131
ag2980
ag3097
ag3101
ag3105
ag3109
asba(i__main__
Node
p3160
(dp3161
g3
Vn03563967
p3162
sg5
I00
sg6
(lp3163
(i__main__
Node
p3164
(dp3165
g3
Vn03039947
p3166
sg5
I00
sg6
(lp3167
(i__main__
Node
p3168
(dp3169
g3
Vn02906734
p3170
sg5
I00
sg6
Nsg7
(lp3171
g3170
asba(i__main__
Node
p3172
(dp3173
g3
Vn04367480
p3174
sg5
I00
sg6
Nsg7
(lp3175
g3174
asbasg7
(lp3176
g3170
ag3174
asba(i__main__
Node
p3177
(dp3178
g3
Vn04317420
p3179
sg5
I00
sg6
(lp3180
(i__main__
Node
p3181
(dp3182
g3
Vn03250847
p3183
sg5
I00
sg6
Nsg7
(lp3184
g3183
asba(i__main__
Node
p3185
(dp3186
g3
Vn03729826
p3187
sg5
I00
sg6
Nsg7
(lp3188
g3187
asba(i__main__
Node
p3189
(dp3190
g3
Vn04277352
p3191
sg5
I00
sg6
Nsg7
(lp3192
g3191
asba(i__main__
Node
p3193
(dp3194
g3
Vn04296261
p3195
sg5
I00
sg6
(lp3196
(i__main__
Node
p3197
(dp3198
g3
Vn03141823
p3199
sg5
I00
sg6
Nsg7
(lp3200
g3199
asba(i__main__
Node
p3201
(dp3202
g3
Vn03355925
p3203
sg5
I00
sg6
Nsg7
(lp3204
g3203
asbasg7
(lp3205
g3199
ag3203
asbasg7
(lp3206
g3183
ag3187
ag3191
ag3199
ag3203
asba(i__main__
Node
p3207
(dp3208
g3
Vn04451818
p3209
sg5
I00
sg6
(lp3210
(i__main__
Node
p3211
(dp3212
g3
Vn03489162
p3213
sg5
I00
sg6
(lp3214
(i__main__
Node
p3215
(dp3216
g3
Vn03481172
p3217
sg5
I00
sg6
Nsg7
(lp3218
g3217
asba(i__main__
Node
p3219
(dp3220
g3
Vn03848348
p3221
sg5
I00
sg6
(lp3222
(i__main__
Node
p3223
(dp3224
g3
Vn02951585
p3225
sg5
I00
sg6
Nsg7
(lp3226
g3225
asba(i__main__
Node
p3227
(dp3228
g3
Vn03109150
p3229
sg5
I00
sg6
Nsg7
(lp3230
g3229
asbasg7
(lp3231
g3225
ag3229
asba(i__main__
Node
p3232
(dp3233
g3
Vn03954731
p3234
sg5
I00
sg6
Nsg7
(lp3235
g3234
asba(i__main__
Node
p3236
(dp3237
g3
Vn03970156
p3238
sg5
I00
sg6
Nsg7
(lp3239
g3238
asba(i__main__
Node
p3240
(dp3241
g3
Vn04154565
p3242
sg5
I00
sg6
Nsg7
(lp3243
g3242
asba(i__main__
Node
p3244
(dp3245
g3
Vn04208210
p3246
sg5
I00
sg6
Nsg7
(lp3247
g3246
asbasg7
(lp3248
g3217
ag3234
ag3238
ag3242
ag3246
ag3225
ag3229
asba(i__main__
Node
p3249
(dp3250
g3
Vn03967562
p3251
sg5
I00
sg6
Nsg7
(lp3252
g3251
asbag2508
a(i__main__
Node
p3253
(dp3254
g3
Vn03649909
p3255
sg5
I00
sg6
Nsg7
(lp3256
g3255
asba(i__main__
Node
p3257
(dp3258
g3
Vn03265032
p3259
sg5
I00
sg6
(lp3260
(i__main__
Node
p3261
(dp3262
g3
Vn03623556
p3263
sg5
I00
sg6
(lp3264
g686
a(i__main__
Node
p3265
(dp3266
g3
Vn03658185
p3267
sg5
I00
sg6
Nsg7
(lp3268
g3267
asbasg7
(lp3269
g688
ag3267
asbag3232
a(i__main__
Node
p3270
(dp3271
g3
Vn03498962
p3272
sg5
I00
sg6
Nsg7
(lp3273
g3272
asbasg7
(lp3274
g3234
ag3272
ag688
ag3267
asbasg7
(lp3275
g3251
ag3255
ag3217
ag3234
ag3238
ag3242
ag3246
ag605
ag2514
ag3272
ag3225
ag3229
ag688
ag3267
asbag2835
a(i__main__
Node
p3276
(dp3277
g3
Vn04116512
p3278
sg5
I00
sg6
Nsg7
(lp3279
g3278
asbag636
a(i__main__
Node
p3280
(dp3281
g3
Vn03976657
p3282
sg5
I00
sg6
Nsg7
(lp3283
g3282
asba(i__main__
Node
p3284
(dp3285
g3
Vn03908714
p3286
sg5
I00
sg6
Nsg7
(lp3287
g3286
asba(i__main__
Node
p3288
(dp3289
g3
Vn04039381
p3290
sg5
I00
sg6
Nsg7
(lp3291
g3290
asba(i__main__
Node
p3292
(dp3293
g3
Vn03906997
p3294
sg5
I00
sg6
(lp3295
(i__main__
Node
p3296
(dp3297
g3
Vn02783161
p3298
sg5
I00
sg6
Nsg7
(lp3299
g3298
asba(i__main__
Node
p3300
(dp3301
g3
Vn03388183
p3302
sg5
I00
sg6
Nsg7
(lp3303
g3302
asba(i__main__
Node
p3304
(dp3305
g3
Vn04033901
p3306
sg5
I00
sg6
Nsg7
(lp3307
g3306
asbasg7
(lp3308
g3298
ag3302
ag3306
asba(i__main__
Node
p3309
(dp3310
g3
Vn03101986
p3311
sg5
I00
sg6
(lp3312
(i__main__
Node
p3313
(dp3314
g3
Vn03880531
p3315
sg5
I00
sg6
(lp3316
(i__main__
Node
p3317
(dp3318
g3
Vn03400231
p3319
sg5
I00
sg6
Nsg7
(lp3320
g3319
asba(i__main__
Node
p3321
(dp3322
g3
Vn04596742
p3323
sg5
I00
sg6
Nsg7
(lp3324
g3323
asbasg7
(lp3325
g3319
ag3323
asbag1795
a(i__main__
Node
p3326
(dp3327
g3
Vn03133878
p3328
sg5
I00
sg6
Nsg7
(lp3329
g3328
asba(i__main__
Node
p3330
(dp3331
g3
Vn04270147
p3332
sg5
I00
sg6
Nsg7
(lp3333
g3332
asbasg7
(lp3334
g3328
ag3332
ag3319
ag3323
ag1801
ag1805
ag1809
asba(i__main__
Node
p3335
(dp3336
g3
Vn04264628
p3337
sg5
I00
sg6
Nsg7
(lp3338
g3337
asbasg7
(lp3339
g2837
ag3278
ag638
ag3282
ag3286
ag3290
ag3337
ag3170
ag3174
ag3183
ag3187
ag3191
ag3251
ag3255
ag3298
ag3302
ag3306
ag3328
ag3332
ag3199
ag3203
ag3217
ag3234
ag3238
ag3242
ag3246
ag605
ag2514
ag3272
ag3319
ag3323
ag1801
ag1805
ag1809
ag3225
ag3229
ag688
ag3267
asba(i__main__
Node
p3340
(dp3341
g3
Vn04377057
p3342
sg5
I00
sg6
(lp3343
(i__main__
Node
p3344
(dp3345
g3
Vn03078287
p3346
sg5
I00
sg6
(lp3347
(i__main__
Node
p3348
(dp3349
g3
Vn04041544
p3350
sg5
I00
sg6
Nsg7
(lp3351
g3350
asba(i__main__
Node
p3352
(dp3353
g3
Vn04404412
p3354
sg5
I00
sg6
Nsg7
(lp3355
g3354
asbasg7
(lp3356
g3350
ag3354
asba(i__main__
Node
p3357
(dp3358
g3
Vn03733281
p3359
sg5
I00
sg6
Nsg7
(lp3360
g3359
asbag2928
asg7
(lp3361
g3359
ag2930
ag3350
ag3354
asba(i__main__
Node
p3362
(dp3363
g3
Vn04447443
p3364
sg5
I00
sg6
(lp3365
(i__main__
Node
p3366
(dp3367
g3
Vn03476991
p3368
sg5
I00
sg6
Nsg7
(lp3369
g3368
asba(i__main__
Node
p3370
(dp3371
g3
Vn03690938
p3372
sg5
I00
sg6
Nsg7
(lp3373
g3372
asba(i__main__
Node
p3374
(dp3375
g3
Vn03916031
p3376
sg5
I00
sg6
Nsg7
(lp3377
g3376
asba(i__main__
Node
p3378
(dp3379
g3
Vn03714235
p3380
sg5
I00
sg6
(lp3381
g268
a(i__main__
Node
p3382
(dp3383
g3
Vn03676483
p3384
sg5
I00
sg6
Nsg7
(lp3385
g3384
asbasg7
(lp3386
g270
ag3384
asbag492
asg7
(lp3387
g3368
ag3372
ag3376
ag494
ag270
ag3384
asba(i__main__
Node
p3388
(dp3389
g3
Vn02999410
p3390
sg5
I00
sg6
Nsg7
(lp3391
g3390
asba(i__main__
Node
p3392
(dp3393
g3
Vn06596364
p3394
sg5
I00
sg6
Nsg7
(lp3395
g3394
asbasg7
(lp3396
g3390
ag3394
ag1675
ag1701
ag1718
ag1417
ag2060
ag2064
ag2068
ag2072
ag2076
ag2080
ag2084
ag2088
ag2092
ag2260
ag2459
ag2748
ag2761
ag2829
ag2833
ag2837
ag1200
ag2841
ag2845
ag2849
ag1272
ag2866
ag3051
ag3055
ag2232
ag1326
ag3278
ag638
ag3282
ag3286
ag3290
ag3337
ag3359
ag2930
ag3368
ag3372
ag3376
ag494
ag1612
ag1616
ag1620
ag1624
ag1628
ag1637
ag1641
ag1650
ag1654
ag1658
ag1662
ag1666
ag1670
ag1696
ag1709
ag1713
ag1726
ag1730
ag1739
ag1743
ag1768
ag1785
ag1789
ag1793
ag1814
ag1818
ag1835
ag1879
ag2030
ag2034
ag2038
ag609
ag2255
ag2273
ag2277
ag2286
ag2290
ag515
ag519
ag2299
ag2303
ag2428
ag419
ag2450
ag2454
ag2467
ag2532
ag2536
ag1178
ag2591
ag2595
ag776
ag2756
ag2794
ag1131
ag2798
ag592
ag2807
ag875
ag809
ag2811
ag2820
ag2824
ag2857
ag2861
ag2879
ag2883
ag2887
ag2891
ag2895
ag2909
ag2980
ag3002
ag3006
ag2943
ag2947
ag2951
ag3042
ag3046
ag1395
ag1399
ag3085
ag11
ag3136
ag3140
ag3144
ag3148
ag3152
ag3156
ag3170
ag3174
ag3183
ag3187
ag3191
ag3251
ag3255
ag3298
ag3302
ag3306
ag3328
ag3332
ag3350
ag3354
ag270
ag3384
ag1687
ag1691
ag1751
ag1755
ag1759
ag1763
ag692
ag1776
ag1780
ag1801
ag1805
ag1809
ag1826
ag1830
ag1848
ag1852
ag1861
ag1865
ag1874
ag717
ag32
ag838
ag2004
ag2025
ag2046
ag2050
ag2054
ag663
ag667
ag671
ag2012
ag2020
ag2122
ag2246
ag2250
ag2316
ag2320
ag2350
ag2354
ag2363
ag2367
ag2376
ag2380
ag2384
ag2393
ag2423
ag2436
ag2440
ag2475
ag2479
ag850
ag854
ag605
ag2514
ag2523
ag2527
ag629
ag633
ag2549
ag2553
ag2578
ag2582
ag2586
ag502
ag2608
ag2630
ag2634
ag2638
ag2642
ag2646
ag2650
ag1206
ag2681
ag2707
ag2742
ag2773
ag2777
ag2781
ag2785
ag435
ag2789
ag579
ag583
ag587
ag2917
ag2921
ag2925
ag2955
ag2959
ag2963
ag2967
ag613
ag2971
ag2975
ag2988
ag2992
ag1957
ag3024
ag3028
ag3032
ag650
ag654
ag3072
ag3076
ag3080
ag817
ag821
ag3114
ag3118
ag3122
ag3131
ag3199
ag3203
ag3217
ag3234
ag3238
ag3242
ag3246
ag3272
ag3319
ag3323
ag443
ag447
ag1891
ag1895
ag1904
ag1953
ag1961
ag1999
ag2016
ag2213
ag2217
ag2337
ag2341
ag2345
ag2401
ag2487
ag2561
ag2565
ag2569
ag2573
ag2616
ag2620
ag4
ag2663
ag2672
ag2676
ag2694
ag2698
ag2702
ag506
ag2737
ag56
ag60
ag3097
ag3101
ag3105
ag3109
ag3225
ag3229
ag688
ag3267
ag1912
ag1916
ag1920
ag1924
ag1928
ag1932
ag1936
ag1940
ag1944
ag1948
ag1969
ag1276
ag1973
ag1977
ag1981
ag2126
ag2135
ag2139
ag2153
ag2157
ag2174
ag2178
ag2196
ag2205
ag2222
ag801
ag2226
ag2332
ag805
ag1268
ag704
ag708
ag2409
ag2413
ag2417
ag2495
ag2499
ag2503
ag2732
ag1989
ag1993
ag2165
ag2169
ag2191
ag427
ag2723
ag2727
asba(i__main__
Node
p3397
(dp3398
g3
Vn03964744
p3399
sg5
I00
sg6
(lp3400
g2551
a(i__main__
Node
p3401
(dp3402
g3
Vn04399382
p3403
sg5
I00
sg6
Nsg7
(lp3404
g3403
asbasg7
(lp3405
g2553
ag3403
asba(i__main__
Node
p3406
(dp3407
g3
Vn04188643
p3408
sg5
I00
sg6
(lp3409
(i__main__
Node
p3410
(dp3411
g3
Vn04149813
p3412
sg5
I00
sg6
Nsg7
(lp3413
g3412
asbag2593
asg7
(lp3414
g3412
ag2595
asba(i__main__
Node
p3415
(dp3416
g3
Vn04341686
p3417
sg5
I00
sg6
(lp3418
(i__main__
Node
p3419
(dp3420
g3
Vn02699494
p3421
sg5
I00
sg6
Nsg7
(lp3422
g3421
asba(i__main__
Node
p3423
(dp3424
g3
Vn02898711
p3425
sg5
I00
sg6
(lp3426
(i__main__
Node
p3427
(dp3428
g3
Vn04311004
p3429
sg5
I00
sg6
Nsg7
(lp3430
g3429
asba(i__main__
Node
p3431
(dp3432
g3
Vn04366367
p3433
sg5
I00
sg6
Nsg7
(lp3434
g3433
asba(i__main__
Node
p3435
(dp3436
g3
Vn04532670
p3437
sg5
I00
sg6
Nsg7
(lp3438
g3437
asbasg7
(lp3439
g3429
ag3433
ag3437
asba(i__main__
Node
p3440
(dp3441
g3
Vn02913152
p3442
sg5
I00
sg6
(lp3443
(i__main__
Node
p3444
(dp3445
g3
Vn03457902
p3446
sg5
I00
sg6
Nsg7
(lp3447
g3446
asba(i__main__
Node
p3448
(dp3449
g3
Vn03661043
p3450
sg5
I00
sg6
Nsg7
(lp3451
g3450
asba(i__main__
Node
p3452
(dp3453
g3
Vn03953416
p3454
sg5
I00
sg6
(lp3455
g828
a(i__main__
Node
p3456
(dp3457
g3
Vn03788195
p3458
sg5
I00
sg6
Nsg7
(lp3459
g3458
asba(i__main__
Node
p3460
(dp3461
g3
Vn04346328
p3462
sg5
I00
sg6
Nsg7
(lp3463
g3462
asbasg7
(lp3464
g830
ag3458
ag3462
asba(i__main__
Node
p3465
(dp3466
g3
Vn03956157
p3467
sg5
I00
sg6
Nsg7
(lp3468
g3467
asba(i__main__
Node
p3469
(dp3470
g3
Vn04081281
p3471
sg5
I00
sg6
Nsg7
(lp3472
g3471
asba(i__main__
Node
p3473
(dp3474
g3
Vn04417809
p3475
sg5
I00
sg6
(lp3476
(i__main__
Node
p3477
(dp3478
g3
Vn03032252
p3479
sg5
I00
sg6
Nsg7
(lp3480
g3479
asba(i__main__
Node
p3481
(dp3482
g3
Vn03529860
p3483
sg5
I00
sg6
Nsg7
(lp3484
g3483
asbasg7
(lp3485
g3479
ag3483
asba(i__main__
Node
p3486
(dp3487
g3
Vn02793495
p3488
sg5
I00
sg6
Nsg7
(lp3489
g3488
asba(i__main__
Node
p3490
(dp3491
g3
Vn04079244
p3492
sg5
I00
sg6
(lp3493
(i__main__
Node
p3494
(dp3495
g3
Vn03877845
p3496
sg5
I00
sg6
Nsg7
(lp3497
g3496
asba(i__main__
Node
p3498
(dp3499
g3
Vn03781244
p3500
sg5
I00
sg6
Nsg7
(lp3501
g3500
asbasg7
(lp3502
g3496
ag3500
asba(i__main__
Node
p3503
(dp3504
g3
Vn04187547
p3505
sg5
I00
sg6
(lp3506
g682
a(i__main__
Node
p3507
(dp3508
g3
Vn02859443
p3509
sg5
I00
sg6
Nsg7
(lp3510
g3509
asbasg7
(lp3511
g684
ag3509
asbasg7
(lp3512
g3446
ag3450
ag3467
ag3471
ag3488
ag830
ag3458
ag3462
ag3479
ag3483
ag3496
ag3500
ag684
ag3509
asba(i__main__
Node
p3513
(dp3514
g3
Vn03065424
p3515
sg5
I00
sg6
Nsg7
(lp3516
g3515
asba(i__main__
Node
p3517
(dp3518
g3
Vn03074380
p3519
sg5
I00
sg6
(lp3520
(i__main__
Node
p3521
(dp3522
g3
Vn03837869
p3523
sg5
I00
sg6
Nsg7
(lp3524
g3523
asbag723
asg7
(lp3525
g3523
ag725
asba(i__main__
Node
p3526
(dp3527
g3
Vn03297735
p3528
sg5
I00
sg6
(lp3529
(i__main__
Node
p3530
(dp3531
g3
Vn03748162
p3532
sg5
I00
sg6
(lp3533
(i__main__
Node
p3534
(dp3535
g3
Vn04202417
p3536
sg5
I00
sg6
(lp3537
(i__main__
Node
p3538
(dp3539
g3
Vn02776631
p3540
sg5
I00
sg6
Nsg7
(lp3541
g3540
asba(i__main__
Node
p3542
(dp3543
g3
Vn02791270
p3544
sg5
I00
sg6
Nsg7
(lp3545
g3544
asba(i__main__
Node
p3546
(dp3547
g3
Vn02871525
p3548
sg5
I00
sg6
Nsg7
(lp3549
g3548
asba(i__main__
Node
p3550
(dp3551
g3
Vn02927161
p3552
sg5
I00
sg6
Nsg7
(lp3553
g3552
asba(i__main__
Node
p3554
(dp3555
g3
Vn03089624
p3556
sg5
I00
sg6
Nsg7
(lp3557
g3556
asba(i__main__
Node
p3558
(dp3559
g3
Vn04200800
p3560
sg5
I00
sg6
Nsg7
(lp3561
g3560
asba(i__main__
Node
p3562
(dp3563
g3
Vn04443257
p3564
sg5
I00
sg6
Nsg7
(lp3565
g3564
asbag1237
asg7
(lp3566
g3540
ag3544
ag3548
ag3552
ag3556
ag3560
ag3564
ag1239
asba(i__main__
Node
p3567
(dp3568
g3
Vn03461385
p3569
sg5
I00
sg6
Nsg7
(lp3570
g3569
asbasg7
(lp3571
g3569
ag3540
ag3544
ag3548
ag3552
ag3556
ag3560
ag3564
ag1239
asba(i__main__
Node
p3572
(dp3573
g3
Vn04005630
p3574
sg5
I00
sg6
Nsg7
(lp3575
g3574
asbasg7
(lp3576
g3574
ag3569
ag3540
ag3544
ag3548
ag3552
ag3556
ag3560
ag3564
ag1239
asba(i__main__
Node
p3577
(dp3578
g3
Vn03388043
p3579
sg5
I00
sg6
Nsg7
(lp3580
g3579
asba(i__main__
Node
p3581
(dp3582
g3
Vn03546340
p3583
sg5
I00
sg6
(lp3584
(i__main__
Node
p3585
(dp3586
g3
Vn03259505
p3587
sg5
I00
sg6
(lp3588
g832
a(i__main__
Node
p3589
(dp3590
g3
Vn04613696
p3591
sg5
I00
sg6
Nsg7
(lp3592
g3591
asbag3490
asg7
(lp3593
g834
ag3591
ag3496
ag3500
asbag2036
asg7
(lp3594
g2038
ag834
ag3591
ag3496
ag3500
asba(i__main__
Node
p3595
(dp3596
g3
Vn03743902
p3597
sg5
I00
sg6
(lp3598
(i__main__
Node
p3599
(dp3600
g3
Vn02892201
p3601
sg5
I00
sg6
Nsg7
(lp3602
g3601
asba(i__main__
Node
p3603
(dp3604
g3
Vn03743016
p3605
sg5
I00
sg6
Nsg7
(lp3606
g3605
asba(i__main__
Node
p3607
(dp3608
g3
Vn04486054
p3609
sg5
I00
sg6
Nsg7
(lp3610
g3609
asbasg7
(lp3611
g3601
ag3605
ag3609
asba(i__main__
Node
p3612
(dp3613
g3
Vn04361095
p3614
sg5
I00
sg6
(lp3615
(i__main__
Node
p3616
(dp3617
g3
Vn03391770
p3618
sg5
I00
sg6
(lp3619
(i__main__
Node
p3620
(dp3621
g3
Vn03530642
p3622
sg5
I00
sg6
Nsg7
(lp3623
g3622
asba(i__main__
Node
p3624
(dp3625
g3
Vn03961711
p3626
sg5
I00
sg6
Nsg7
(lp3627
g3626
asbasg7
(lp3628
g3622
ag3626
asba(i__main__
Node
p3629
(dp3630
g3
Vn03903868
p3631
sg5
I00
sg6
Nsg7
(lp3632
g3631
asbasg7
(lp3633
g3631
ag3622
ag3626
asba(i__main__
Node
p3634
(dp3635
g3
Vn03899768
p3636
sg5
I00
sg6
Nsg7
(lp3637
g3636
asba(i__main__
Node
p3638
(dp3639
g3
Vn03216828
p3640
sg5
I00
sg6
Nsg7
(lp3641
g3640
asba(i__main__
Node
p3642
(dp3643
g3
Vn02796623
p3644
sg5
I00
sg6
(lp3645
(i__main__
Node
p3646
(dp3647
g3
Vn02788148
p3648
sg5
I00
sg6
Nsg7
(lp3649
g3648
asba(i__main__
Node
p3650
(dp3651
g3
Vn02894605
p3652
sg5
I00
sg6
Nsg7
(lp3653
g3652
asbag1208
a(i__main__
Node
p3654
(dp3655
g3
Vn03327234
p3656
sg5
I00
sg6
(lp3657
(i__main__
Node
p3658
(dp3659
g3
Vn03000134
p3660
sg5
I00
sg6
Nsg7
(lp3661
g3660
asba(i__main__
Node
p3662
(dp3663
g3
Vn03930313
p3664
sg5
I00
sg6
Nsg7
(lp3665
g3664
asba(i__main__
Node
p3666
(dp3667
g3
Vn04326547
p3668
sg5
I00
sg6
Nsg7
(lp3669
g3668
asba(i__main__
Node
p3670
(dp3671
g3
Vn04604644
p3672
sg5
I00
sg6
Nsg7
(lp3673
g3672
asbasg7
(lp3674
g3660
ag3664
ag3668
ag3672
asba(i__main__
Node
p3675
(dp3676
g3
Vn03795580
p3677
sg5
I00
sg6
(lp3678
(i__main__
Node
p3679
(dp3680
g3
Vn04239074
p3681
sg5
I00
sg6
Nsg7
(lp3682
g3681
asba(i__main__
Node
p3683
(dp3684
g3
Vn04501370
p3685
sg5
I00
sg6
Nsg7
(lp3686
g3685
asbasg7
(lp3687
g3681
ag3685
asbag421
asg7
(lp3688
g3648
ag3652
ag1210
ag423
ag3660
ag3664
ag3668
ag3672
ag3681
ag3685
asbag3410
ag38
a(i__main__
Node
p3689
(dp3690
g3
Vn02980441
p3691
sg5
I00
sg6
Nsg7
(lp3692
g3691
asbag824
a(i__main__
Node
p3693
(dp3694
g3
Vn03697007
p3695
sg5
I00
sg6
Nsg7
(lp3696
g3695
asbasg7
(lp3697
g3421
ag3515
ag3579
ag3636
ag3640
ag3412
ag40
ag3691
ag826
ag3695
ag3429
ag3433
ag3437
ag3446
ag3450
ag3467
ag3471
ag3488
ag3523
ag725
ag3574
ag2038
ag3601
ag3605
ag3609
ag3631
ag3648
ag3652
ag1210
ag423
ag830
ag3458
ag3462
ag3479
ag3483
ag3496
ag3500
ag684
ag3509
ag3569
ag834
ag3591
ag3622
ag3626
ag3660
ag3664
ag3668
ag3672
ag3681
ag3685
ag3540
ag3544
ag3548
ag3552
ag3556
ag3560
ag3564
ag1239
asba(i__main__
Node
p3698
(dp3699
g3
Vn04381994
p3700
sg5
I00
sg6
(lp3701
g1677
ag2090
asg7
(lp3702
g2092
ag1696
ag1687
ag1691
asbag753
a(i__main__
Node
p3703
(dp3704
g3
Vn04296562
p3705
sg5
I00
sg6
Nsg7
(lp3706
g3705
asbasg7
(lp3707
g755
ag3705
ag1292
ag1301
ag1543
ag1547
ag1556
ag725
ag1591
ag1595
ag3390
ag3394
ag2553
ag3403
ag3412
ag2595
ag3421
ag3515
ag3579
ag3636
ag3640
ag40
ag3691
ag826
ag3695
ag2092
ag1309
ag1313
ag1119
ag1123
ag1127
ag1131
ag1322
ag1326
ag1335
ag1356
ag1243
ag1503
ag1538
ag1569
ag1573
ag1577
ag1675
ag1701
ag1718
ag1417
ag2060
ag2064
ag2068
ag2072
ag2076
ag2080
ag2084
ag2088
ag2260
ag2459
ag2748
ag2761
ag2829
ag2833
ag2837
ag1200
ag2841
ag2845
ag2849
ag1272
ag2866
ag3051
ag3055
ag2232
ag3278
ag638
ag3282
ag3286
ag3290
ag3337
ag3359
ag2930
ag3368
ag3372
ag3376
ag494
ag3429
ag3433
ag3437
ag3446
ag3450
ag3467
ag3471
ag3488
ag3523
ag3574
ag2038
ag3601
ag3605
ag3609
ag3631
ag3648
ag3652
ag1210
ag423
ag1696
ag891
ag895
ag904
ag973
ag1024
ag1028
ag1032
ag1036
ag788
ag792
ag742
ag1106
ag1110
ag1114
ag713
ag750
ag1343
ag1347
ag1351
ag1382
ag1404
ag1413
ag1426
ag1430
ag1439
ag1443
ag1447
ag1451
ag1460
ag1464
ag1468
ag1477
ag1481
ag1490
ag1494
ag1498
ag1511
ag1515
ag1529
ag1533
ag1585
ag1612
ag1616
ag1620
ag1624
ag1628
ag1637
ag1641
ag1650
ag1654
ag1658
ag1662
ag1666
ag1670
ag1709
ag1713
ag1726
ag1730
ag1739
ag1743
ag1768
ag1785
ag1789
ag1793
ag1814
ag1818
ag1835
ag1879
ag2030
ag2034
ag609
ag2255
ag2273
ag2277
ag2286
ag2290
ag515
ag519
ag2299
ag2303
ag2428
ag419
ag2450
ag2454
ag2467
ag2532
ag2536
ag1178
ag2591
ag776
ag2756
ag2794
ag2798
ag592
ag2807
ag875
ag809
ag2811
ag2820
ag2824
ag2857
ag2861
ag2879
ag2883
ag2887
ag2891
ag2895
ag2909
ag2980
ag3002
ag3006
ag2943
ag2947
ag2951
ag3042
ag3046
ag1395
ag1399
ag3085
ag11
ag3136
ag3140
ag3144
ag3148
ag3152
ag3156
ag3170
ag3174
ag3183
ag3187
ag3191
ag3251
ag3255
ag3298
ag3302
ag3306
ag3328
ag3332
ag3350
ag3354
ag270
ag3384
ag830
ag3458
ag3462
ag3479
ag3483
ag3496
ag3500
ag684
ag3509
ag3569
ag834
ag3591
ag3622
ag3626
ag3660
ag3664
ag3668
ag3672
ag3681
ag3685
ag1687
ag1691
ag486
ag1182
ag929
ag938
ag942
ag696
ag951
ag960
ag964
ag968
ag415
ag981
ag985
ag994
ag998
ag1002
ag1011
ag1015
ag1019
ag1049
ag1053
ag1057
ag1066
ag1070
ag1074
ag1078
ag1087
ag1091
ag1373
ag1377
ag1751
ag1755
ag1759
ag1763
ag692
ag1776
ag1780
ag1801
ag1805
ag1809
ag1826
ag1830
ag1848
ag1852
ag1861
ag1865
ag1874
ag717
ag32
ag838
ag2004
ag2025
ag2046
ag2050
ag2054
ag663
ag667
ag671
ag2012
ag2020
ag2122
ag2246
ag2250
ag2316
ag2320
ag2350
ag2354
ag2363
ag2367
ag2376
ag2380
ag2384
ag2393
ag2423
ag2436
ag2440
ag2475
ag2479
ag850
ag854
ag605
ag2514
ag2523
ag2527
ag629
ag633
ag2549
ag2578
ag2582
ag2586
ag502
ag2608
ag2630
ag2634
ag2638
ag2642
ag2646
ag2650
ag1206
ag2681
ag2707
ag2742
ag2773
ag2777
ag2781
ag2785
ag435
ag2789
ag579
ag583
ag587
ag2917
ag2921
ag2925
ag2955
ag2959
ag2963
ag2967
ag613
ag2971
ag2975
ag2988
ag2992
ag1957
ag3024
ag3028
ag3032
ag650
ag654
ag3072
ag3076
ag3080
ag817
ag821
ag3114
ag3118
ag3122
ag3131
ag3199
ag3203
ag3217
ag3234
ag3238
ag3242
ag3246
ag3272
ag3319
ag3323
ag3540
ag3544
ag3548
ag3552
ag3556
ag3560
ag3564
ag1239
ag1148
ag1165
ag1169
ag1173
ag1190
ag871
ag1194
ag916
ag920
ag924
ag443
ag447
ag1891
ag1895
ag1904
ag1953
ag1961
ag1999
ag2016
ag2213
ag2217
ag2337
ag2341
ag2345
ag2401
ag2487
ag2561
ag2565
ag2569
ag2573
ag2616
ag2620
ag4
ag2663
ag2672
ag2676
ag2694
ag2698
ag2702
ag506
ag2737
ag56
ag60
ag3097
ag3101
ag3105
ag3109
ag3225
ag3229
ag688
ag3267
ag1156
ag1160
ag1912
ag1916
ag1920
ag1924
ag1928
ag1932
ag1936
ag1940
ag1944
ag1948
ag1969
ag1276
ag1973
ag1977
ag1981
ag2126
ag2135
ag2139
ag2153
ag2157
ag2174
ag2178
ag2196
ag2205
ag2222
ag801
ag2226
ag2332
ag805
ag1268
ag704
ag708
ag2409
ag2413
ag2417
ag2495
ag2499
ag2503
ag2732
ag1989
ag1993
ag2165
ag2169
ag2191
ag427
ag2723
ag2727
asba(i__main__
Node
p3708
(dp3709
g3
Vn00019128
p3710
sg5
I00
sg6
(lp3711
(i__main__
Node
p3712
(dp3713
g3
Vn09421951
p3714
sg5
I00
sg6
Nsg7
(lp3715
g3714
asba(i__main__
Node
p3716
(dp3717
g3
Vn13134947
p3718
sg5
I00
sg6
(lp3719
(i__main__
Node
p3720
(dp3721
g3
Vn12267677
p3722
sg5
I00
sg6
Nsg7
(lp3723
g3722
asba(i__main__
Node
p3724
(dp3725
g3
Vn13133613
p3726
sg5
I00
sg6
Nsg7
(lp3727
g3726
asbag282
a(i__main__
Node
p3728
(dp3729
g3
Vn12620546
p3730
sg5
I00
sg6
Nsg7
(lp3731
g3730
asba(i__main__
Node
p3732
(dp3733
g3
Vn13135832
p3734
sg5
I00
sg6
(lp3735
(i__main__
Node
p3736
(dp3737
g3
Vn12768682
p3738
sg5
I00
sg6
Nsg7
(lp3739
g3738
asba(i__main__
Node
p3740
(dp3741
g3
Vn11879895
p3742
sg5
I00
sg6
Nsg7
(lp3743
g3742
asba(i__main__
Node
p3744
(dp3745
g3
Vn12144580
p3746
sg5
I00
sg6
Nsg7
(lp3747
g3746
asbasg7
(lp3748
g3738
ag3742
ag3746
asbasg7
(lp3749
g3722
ag3726
ag3730
ag288
ag305
ag309
ag313
ag317
ag321
ag325
ag329
ag3738
ag3742
ag3746
ag296
ag300
asbasg7
(lp3750
g3714
ag3722
ag3726
ag3730
ag288
ag305
ag309
ag313
ag317
ag321
ag325
ag329
ag3738
ag3742
ag3746
ag296
ag300
asba(i__main__
Node
p3751
(dp3752
g3
Vn00004475
p3753
sg5
I00
sg6
(lp3754
(i__main__
Node
p3755
(dp3756
g3
Vn00015388
p3757
sg5
I00
sg6
(lp3758
(i__main__
Node
p3759
(dp3760
g3
Vn01905661
p3761
sg5
I00
sg6
(lp3762
(i__main__
Node
p3763
(dp3764
g3
Vn01767661
p3765
sg5
I00
sg6
(lp3766
(i__main__
Node
p3767
(dp3768
g3
Vn01769347
p3769
sg5
I00
sg6
(lp3770
(i__main__
Node
p3771
(dp3772
g3
Vn01770081
p3773
sg5
I00
sg6
Nsg7
(lp3774
g3773
asba(i__main__
Node
p3775
(dp3776
g3
Vn01770393
p3777
sg5
I00
sg6
Nsg7
(lp3778
g3777
asba(i__main__
Node
p3779
(dp3780
g3
Vn01772222
p3781
sg5
I00
sg6
(lp3782
g467
a(i__main__
Node
p3783
(dp3784
g3
Vn01773157
p3785
sg5
I00
sg6
Nsg7
(lp3786
g3785
asba(i__main__
Node
p3787
(dp3788
g3
Vn01774384
p3789
sg5
I00
sg6
Nsg7
(lp3790
g3789
asbag463
a(i__main__
Node
p3791
(dp3792
g3
Vn01774750
p3793
sg5
I00
sg6
Nsg7
(lp3794
g3793
asba(i__main__
Node
p3795
(dp3796
g3
Vn01775062
p3797
sg5
I00
sg6
Nsg7
(lp3798
g3797
asbasg7
(lp3799
g469
ag3785
ag3789
ag465
ag3793
ag3797
asba(i__main__
Node
p3800
(dp3801
g3
Vn01776313
p3802
sg5
I00
sg6
Nsg7
(lp3803
g3802
asbasg7
(lp3804
g3773
ag3777
ag3802
ag469
ag3785
ag3789
ag465
ag3793
ag3797
asba(i__main__
Node
p3805
(dp3806
g3
Vn01784675
p3807
sg5
I00
sg6
Nsg7
(lp3808
g3807
asba(i__main__
Node
p3809
(dp3810
g3
Vn01974773
p3811
sg5
I00
sg6
(lp3812
(i__main__
Node
p3813
(dp3814
g3
Vn01976146
p3815
sg5
I00
sg6
(lp3816
(i__main__
Node
p3817
(dp3818
g3
Vn01976957
p3819
sg5
I00
sg6
(lp3820
(i__main__
Node
p3821
(dp3822
g3
Vn01978287
p3823
sg5
I00
sg6
Nsg7
(lp3824
g3823
asba(i__main__
Node
p3825
(dp3826
g3
Vn01980166
p3827
sg5
I00
sg6
Nsg7
(lp3828
g3827
asbag674
a(i__main__
Node
p3829
(dp3830
g3
Vn01978455
p3831
sg5
I00
sg6
Nsg7
(lp3832
g3831
asbasg7
(lp3833
g3823
ag3827
ag676
ag3831
asba(i__main__
Node
p3834
(dp3835
g3
Vn01985128
p3836
sg5
I00
sg6
Nsg7
(lp3837
g3836
asba(i__main__
Node
p3838
(dp3839
g3
Vn01986214
p3840
sg5
I00
sg6
Nsg7
(lp3841
g3840
asba(i__main__
Node
p3842
(dp3843
g3
Vn01982650
p3844
sg5
I00
sg6
(lp3845
(i__main__
Node
p3846
(dp3847
g3
Vn01984695
p3848
sg5
I00
sg6
Nsg7
(lp3849
g3848
asba(i__main__
Node
p3850
(dp3851
g3
Vn01983481
p3852
sg5
I00
sg6
Nsg7
(lp3853
g3852
asbasg7
(lp3854
g3848
ag3852
asbasg7
(lp3855
g3836
ag3840
ag3823
ag3827
ag676
ag3831
ag3848
ag3852
asba(i__main__
Node
p3856
(dp3857
g3
Vn01990800
p3858
sg5
I00
sg6
Nsg7
(lp3859
g3858
asbasg7
(lp3860
g3858
ag3836
ag3840
ag3823
ag3827
ag676
ag3831
ag3848
ag3852
asba(i__main__
Node
p3861
(dp3862
g3
Vn02159955
p3863
sg5
I00
sg6
(lp3864
(i__main__
Node
p3865
(dp3866
g3
Vn02164464
p3867
sg5
I00
sg6
(lp3868
(i__main__
Node
p3869
(dp3870
g3
Vn02167151
p3871
sg5
I00
sg6
Nsg7
(lp3872
g3871
asba(i__main__
Node
p3873
(dp3874
g3
Vn02165456
p3875
sg5
I00
sg6
Nsg7
(lp3876
g3875
asba(i__main__
Node
p3877
(dp3878
g3
Vn02169497
p3879
sg5
I00
sg6
Nsg7
(lp3880
g3879
asba(i__main__
Node
p3881
(dp3882
g3
Vn02168699
p3883
sg5
I00
sg6
Nsg7
(lp3884
g3883
asba(i__main__
Node
p3885
(dp3886
g3
Vn02165105
p3887
sg5
I00
sg6
Nsg7
(lp3888
g3887
asba(i__main__
Node
p3889
(dp3890
g3
Vn02177972
p3891
sg5
I00
sg6
Nsg7
(lp3892
g3891
asba(i__main__
Node
p3893
(dp3894
g3
Vn02171869
p3895
sg5
I00
sg6
(lp3896
(i__main__
Node
p3897
(dp3898
g3
Vn02172182
p3899
sg5
I00
sg6
Nsg7
(lp3900
g3899
asba(i__main__
Node
p3901
(dp3902
g3
Vn02174001
p3903
sg5
I00
sg6
Nsg7
(lp3904
g3903
asbasg7
(lp3905
g3899
ag3903
asbasg7
(lp3906
g3871
ag3875
ag3879
ag3883
ag3887
ag3891
ag3899
ag3903
asba(i__main__
Node
p3907
(dp3908
g3
Vn02232951
p3909
sg5
I00
sg6
(lp3910
(i__main__
Node
p3911
(dp3912
g3
Vn02233338
p3913
sg5
I00
sg6
Nsg7
(lp3914
g3913
asba(i__main__
Node
p3915
(dp3916
g3
Vn02236044
p3917
sg5
I00
sg6
Nsg7
(lp3918
g3917
asbasg7
(lp3919
g3913
ag3917
asba(i__main__
Node
p3920
(dp3921
g3
Vn02246011
p3922
sg5
I00
sg6
(lp3923
(i__main__
Node
p3924
(dp3925
g3
Vn02256656
p3926
sg5
I00
sg6
Nsg7
(lp3927
g3926
asba(i__main__
Node
p3928
(dp3929
g3
Vn02259212
p3930
sg5
I00
sg6
Nsg7
(lp3931
g3930
asbasg7
(lp3932
g3926
ag3930
asba(i__main__
Node
p3933
(dp3934
g3
Vn02206270
p3935
sg5
I00
sg6
(lp3936
(i__main__
Node
p3937
(dp3938
g3
Vn02219486
p3939
sg5
I00
sg6
Nsg7
(lp3940
g3939
asba(i__main__
Node
p3941
(dp3942
g3
Vn02206856
p3943
sg5
I00
sg6
Nsg7
(lp3944
g3943
asbasg7
(lp3945
g3939
ag3943
asba(i__main__
Node
p3946
(dp3947
g3
Vn02268148
p3948
sg5
I00
sg6
(lp3949
(i__main__
Node
p3950
(dp3951
g3
Vn02268853
p3952
sg5
I00
sg6
Nsg7
(lp3953
g3952
asba(i__main__
Node
p3954
(dp3955
g3
Vn02268443
p3956
sg5
I00
sg6
Nsg7
(lp3957
g3956
asbasg7
(lp3958
g3952
ag3956
asba(i__main__
Node
p3959
(dp3960
g3
Vn02226183
p3961
sg5
I00
sg6
(lp3962
(i__main__
Node
p3963
(dp3964
g3
Vn02229544
p3965
sg5
I00
sg6
Nsg7
(lp3966
g3965
asba(i__main__
Node
p3967
(dp3968
g3
Vn02226429
p3969
sg5
I00
sg6
Nsg7
(lp3970
g3969
asbasg7
(lp3971
g3965
ag3969
asba(i__main__
Node
p3972
(dp3973
g3
Vn02190166
p3974
sg5
I00
sg6
Nsg7
(lp3975
g3974
asba(i__main__
Node
p3976
(dp3977
g3
Vn02274259
p3978
sg5
I00
sg6
(lp3979
(i__main__
Node
p3980
(dp3981
g3
Vn02281787
p3982
sg5
I00
sg6
Nsg7
(lp3983
g3982
asba(i__main__
Node
p3984
(dp3985
g3
Vn02277742
p3986
sg5
I00
sg6
Nsg7
(lp3987
g3986
asba(i__main__
Node
p3988
(dp3989
g3
Vn02281406
p3990
sg5
I00
sg6
Nsg7
(lp3991
g3990
asba(i__main__
Node
p3992
(dp3993
g3
Vn02279972
p3994
sg5
I00
sg6
Nsg7
(lp3995
g3994
asba(i__main__
Node
p3996
(dp3997
g3
Vn02276258
p3998
sg5
I00
sg6
Nsg7
(lp3999
g3998
asba(i__main__
Node
p4000
(dp4001
g3
Vn02280649
p4002
sg5
I00
sg6
Nsg7
(lp4003
g4002
asbasg7
(lp4004
g3982
ag3986
ag3990
ag3994
ag3998
ag4002
asba(i__main__
Node
p4005
(dp4006
g3
Vn02264363
p4007
sg5
I00
sg6
Nsg7
(lp4008
g4007
asba(i__main__
Node
p4009
(dp4010
g3
Vn02231487
p4011
sg5
I00
sg6
Nsg7
(lp4012
g4011
asbasg7
(lp4013
g3974
ag4007
ag4011
ag3871
ag3875
ag3879
ag3883
ag3887
ag3891
ag3913
ag3917
ag3926
ag3930
ag3939
ag3943
ag3952
ag3956
ag3965
ag3969
ag3982
ag3986
ag3990
ag3994
ag3998
ag4002
ag3899
ag3903
asba(i__main__
Node
p4014
(dp4015
g3
Vn01768244
p4016
sg5
I00
sg6
Nsg7
(lp4017
g4016
asbasg7
(lp4018
g3807
ag4016
ag3773
ag3777
ag3802
ag3858
ag3974
ag4007
ag4011
ag469
ag3785
ag3789
ag465
ag3793
ag3797
ag3836
ag3840
ag3871
ag3875
ag3879
ag3883
ag3887
ag3891
ag3913
ag3917
ag3926
ag3930
ag3939
ag3943
ag3952
ag3956
ag3965
ag3969
ag3982
ag3986
ag3990
ag3994
ag3998
ag4002
ag3823
ag3827
ag676
ag3831
ag3848
ag3852
ag3899
ag3903
asba(i__main__
Node
p4019
(dp4020
g3
Vn01909422
p4021
sg5
I00
sg6
(lp4022
(i__main__
Node
p4023
(dp4024
g3
Vn01914163
p4025
sg5
I00
sg6
(lp4026
(i__main__
Node
p4027
(dp4028
g3
Vn01914609
p4029
sg5
I00
sg6
Nsg7
(lp4030
g4029
asba(i__main__
Node
p4031
(dp4032
g3
Vn01917289
p4033
sg5
I00
sg6
Nsg7
(lp4034
g4033
asbasg7
(lp4035
g4029
ag4033
asba(i__main__
Node
p4036
(dp4037
g3
Vn01910747
p4038
sg5
I00
sg6
Nsg7
(lp4039
g4038
asbasg7
(lp4040
g4038
ag4029
ag4033
asba(i__main__
Node
p4041
(dp4042
g3
Vn02316707
p4043
sg5
I00
sg6
(lp4044
(i__main__
Node
p4045
(dp4046
g3
Vn02321529
p4047
sg5
I00
sg6
Nsg7
(lp4048
g4047
asba(i__main__
Node
p4049
(dp4050
g3
Vn02319095
p4051
sg5
I00
sg6
Nsg7
(lp4052
g4051
asba(i__main__
Node
p4053
(dp4054
g3
Vn02317335
p4055
sg5
I00
sg6
Nsg7
(lp4056
g4055
asbasg7
(lp4057
g4047
ag4051
ag4055
asba(i__main__
Node
p4058
(dp4059
g3
Vn01940736
p4060
sg5
I00
sg6
(lp4061
(i__main__
Node
p4062
(dp4063
g3
Vn01955084
p4064
sg5
I00
sg6
Nsg7
(lp4065
g4064
asba(i__main__
Node
p4066
(dp4067
g3
Vn01942177
p4068
sg5
I00
sg6
(lp4069
(i__main__
Node
p4070
(dp4071
g3
Vn01943899
p4072
sg5
I00
sg6
Nsg7
(lp4073
g4072
asba(i__main__
Node
p4074
(dp4075
g3
Vn01950731
p4076
sg5
I00
sg6
Nsg7
(lp4077
g4076
asba(i__main__
Node
p4078
(dp4079
g3
Vn01945685
p4080
sg5
I00
sg6
Nsg7
(lp4081
g4080
asba(i__main__
Node
p4082
(dp4083
g3
Vn01944390
p4084
sg5
I00
sg6
Nsg7
(lp4085
g4084
asbasg7
(lp4086
g4072
ag4076
ag4080
ag4084
asba(i__main__
Node
p4087
(dp4088
g3
Vn01968897
p4089
sg5
I00
sg6
Nsg7
(lp4090
g4089
asbasg7
(lp4091
g4064
ag4089
ag4072
ag4076
ag4080
ag4084
asba(i__main__
Node
p4092
(dp4093
g3
Vn01922303
p4094
sg5
I00
sg6
(lp4095
g678
a(i__main__
Node
p4096
(dp4097
g3
Vn01930112
p4098
sg5
I00
sg6
Nsg7
(lp4099
g4098
asbasg7
(lp4100
g680
ag4098
asbasg7
(lp4101
g3807
ag4016
ag4038
ag4047
ag4051
ag4055
ag4064
ag4089
ag680
ag4098
ag3773
ag3777
ag3802
ag3858
ag3974
ag4007
ag4011
ag4029
ag4033
ag4072
ag4076
ag4080
ag4084
ag469
ag3785
ag3789
ag465
ag3793
ag3797
ag3836
ag3840
ag3871
ag3875
ag3879
ag3883
ag3887
ag3891
ag3913
ag3917
ag3926
ag3930
ag3939
ag3943
ag3952
ag3956
ag3965
ag3969
ag3982
ag3986
ag3990
ag3994
ag3998
ag4002
ag3823
ag3827
ag676
ag3831
ag3848
ag3852
ag3899
ag3903
asba(i__main__
Node
p4102
(dp4103
g3
Vn01471682
p4104
sg5
I00
sg6
(lp4105
(i__main__
Node
p4106
(dp4107
g3
Vn01627424
p4108
sg5
I00
sg6
(lp4109
(i__main__
Node
p4110
(dp4111
g3
Vn01639765
p4112
sg5
I00
sg6
(lp4113
(i__main__
Node
p4114
(dp4115
g3
Vn01644900
p4116
sg5
I00
sg6
Nsg7
(lp4117
g4116
asba(i__main__
Node
p4118
(dp4119
g3
Vn01644373
p4120
sg5
I00
sg6
Nsg7
(lp4121
g4120
asba(i__main__
Node
p4122
(dp4123
g3
Vn01641577
p4124
sg5
I00
sg6
Nsg7
(lp4125
g4124
asbasg7
(lp4126
g4116
ag4120
ag4124
asba(i__main__
Node
p4127
(dp4128
g3
Vn01629276
p4129
sg5
I00
sg6
(lp4130
(i__main__
Node
p4131
(dp4132
g3
Vn01632047
p4133
sg5
I00
sg6
(lp4134
(i__main__
Node
p4135
(dp4136
g3
Vn01632777
p4137
sg5
I00
sg6
Nsg7
(lp4138
g4137
asba(i__main__
Node
p4139
(dp4140
g3
Vn01632458
p4141
sg5
I00
sg6
Nsg7
(lp4142
g4141
asbasg7
(lp4143
g4137
ag4141
asba(i__main__
Node
p4144
(dp4145
g3
Vn01629819
p4146
sg5
I00
sg6
Nsg7
(lp4147
g4146
asba(i__main__
Node
p4148
(dp4149
g3
Vn01630284
p4150
sg5
I00
sg6
(lp4151
(i__main__
Node
p4152
(dp4153
g3
Vn01630670
p4154
sg5
I00
sg6
Nsg7
(lp4155
g4154
asba(i__main__
Node
p4156
(dp4157
g3
Vn01631663
p4158
sg5
I00
sg6
Nsg7
(lp4159
g4158
asbasg7
(lp4160
g4154
ag4158
asbasg7
(lp4161
g4146
ag4137
ag4141
ag4154
ag4158
asbasg7
(lp4162
g4116
ag4120
ag4124
ag4146
ag4137
ag4141
ag4154
ag4158
asba(i__main__
Node
p4163
(dp4164
g3
Vn01503061
p4165
sg5
I00
sg6
(lp4166
(i__main__
Node
p4167
(dp4168
g3
Vn01844917
p4169
sg5
I00
sg6
(lp4170
(i__main__
Node
p4171
(dp4172
g3
Vn02021795
p4173
sg5
I00
sg6
(lp4174
(i__main__
Node
p4175
(dp4176
g3
Vn02058221
p4177
sg5
I00
sg6
Nsg7
(lp4178
g4177
asba(i__main__
Node
p4179
(dp4180
g3
Vn02051845
p4181
sg5
I00
sg6
Nsg7
(lp4182
g4181
asba(i__main__
Node
p4183
(dp4184
g3
Vn02056570
p4185
sg5
I00
sg6
Nsg7
(lp4186
g4185
asbasg7
(lp4187
g4177
ag4181
ag4185
asba(i__main__
Node
p4188
(dp4189
g3
Vn02000954
p4190
sg5
I00
sg6
(lp4191
(i__main__
Node
p4192
(dp4193
g3
Vn02018795
p4194
sg5
I00
sg6
Nsg7
(lp4195
g4194
asba(i__main__
Node
p4196
(dp4197
g3
Vn02012849
p4198
sg5
I00
sg6
Nsg7
(lp4199
g4198
asba(i__main__
Node
p4200
(dp4201
g3
Vn02007558
p4202
sg5
I00
sg6
Nsg7
(lp4203
g4202
asbag1249
a(i__main__
Node
p4204
(dp4205
g3
Vn02013706
p4206
sg5
I00
sg6
Nsg7
(lp4207
g4206
asbag526
a(i__main__
Node
p4208
(dp4209
g3
Vn02006656
p4210
sg5
I00
sg6
Nsg7
(lp4211
g4210
asba(i__main__
Node
p4212
(dp4213
g3
Vn02002075
p4214
sg5
I00
sg6
(lp4215
(i__main__
Node
p4216
(dp4217
g3
Vn02002724
p4218
sg5
I00
sg6
Nsg7
(lp4219
g4218
asba(i__main__
Node
p4220
(dp4221
g3
Vn02002556
p4222
sg5
I00
sg6
Nsg7
(lp4223
g4222
asbasg7
(lp4224
g4218
ag4222
asba(i__main__
Node
p4225
(dp4226
g3
Vn02018207
p4227
sg5
I00
sg6
Nsg7
(lp4228
g4227
asbasg7
(lp4229
g4194
ag4198
ag4202
ag4206
ag4210
ag4227
ag1255
ag1259
ag1263
ag532
ag549
ag553
ag4218
ag4222
ag540
ag544
asba(i__main__
Node
p4230
(dp4231
g3
Vn01860187
p4232
sg5
I00
sg6
Nsg7
(lp4233
g4232
asba(i__main__
Node
p4234
(dp4235
g3
Vn01845477
p4236
sg5
I00
sg6
(lp4237
(i__main__
Node
p4238
(dp4239
g3
Vn01846331
p4240
sg5
I00
sg6
(lp4241
(i__main__
Node
p4242
(dp4243
g3
Vn01847000
p4244
sg5
I00
sg6
Nsg7
(lp4245
g4244
asba(i__main__
Node
p4246
(dp4247
g3
Vn01855032
p4248
sg5
I00
sg6
Nsg7
(lp4249
g4248
asbasg7
(lp4250
g4244
ag4248
asba(i__main__
Node
p4251
(dp4252
g3
Vn01855672
p4253
sg5
I00
sg6
Nsg7
(lp4254
g4253
asbasg7
(lp4255
g4253
ag4244
ag4248
asba(i__main__
Node
p4256
(dp4257
g3
Vn02017213
p4258
sg5
I00
sg6
Nsg7
(lp4259
g4258
asbasg7
(lp4260
g4232
ag4258
ag4177
ag4181
ag4185
ag4194
ag4198
ag4202
ag4206
ag4210
ag4227
ag4253
ag1255
ag1259
ag1263
ag532
ag549
ag553
ag4218
ag4222
ag4244
ag4248
ag540
ag544
asba(i__main__
Node
p4261
(dp4262
g3
Vn01604330
p4263
sg5
I00
sg6
(lp4264
(i__main__
Node
p4265
(dp4266
g3
Vn01616318
p4267
sg5
I00
sg6
Nsg7
(lp4268
g4267
asba(i__main__
Node
p4269
(dp4270
g3
Vn01614925
p4271
sg5
I00
sg6
Nsg7
(lp4272
g4271
asba(i__main__
Node
p4273
(dp4274
g3
Vn01608432
p4275
sg5
I00
sg6
Nsg7
(lp4276
g4275
asba(i__main__
Node
p4277
(dp4278
g3
Vn01622779
p4279
sg5
I00
sg6
Nsg7
(lp4280
g4279
asbasg7
(lp4281
g4267
ag4271
ag4275
ag4279
asba(i__main__
Node
p4282
(dp4283
g3
Vn01514668
p4284
sg5
I00
sg6
Nsg7
(lp4285
g4284
asba(i__main__
Node
p4286
(dp4287
g3
Vn01825930
p4288
sg5
I00
sg6
(lp4289
(i__main__
Node
p4290
(dp4291
g3
Vn01828970
p4292
sg5
I00
sg6
Nsg7
(lp4293
g4292
asba(i__main__
Node
p4294
(dp4295
g3
Vn01829413
p4296
sg5
I00
sg6
Nsg7
(lp4297
g4296
asbasg7
(lp4298
g4292
ag4296
asbag429
a(i__main__
Node
p4299
(dp4300
g3
Vn01816887
p4301
sg5
I00
sg6
(lp4302
(i__main__
Node
p4303
(dp4304
g3
Vn01817953
p4305
sg5
I00
sg6
Nsg7
(lp4306
g4305
asba(i__main__
Node
p4307
(dp4308
g3
Vn01818515
p4309
sg5
I00
sg6
Nsg7
(lp4310
g4309
asba(i__main__
Node
p4311
(dp4312
g3
Vn01819313
p4313
sg5
I00
sg6
Nsg7
(lp4314
g4313
asba(i__main__
Node
p4315
(dp4316
g3
Vn01820546
p4317
sg5
I00
sg6
Nsg7
(lp4318
g4317
asbasg7
(lp4319
g4305
ag4309
ag4313
ag4317
asba(i__main__
Node
p4320
(dp4321
g3
Vn01838038
p4322
sg5
I00
sg6
(lp4323
(i__main__
Node
p4324
(dp4325
g3
Vn01843065
p4326
sg5
I00
sg6
Nsg7
(lp4327
g4326
asba(i__main__
Node
p4328
(dp4329
g3
Vn01843383
p4330
sg5
I00
sg6
Nsg7
(lp4331
g4330
asbasg7
(lp4332
g4326
ag4330
asba(i__main__
Node
p4333
(dp4334
g3
Vn01833805
p4335
sg5
I00
sg6
Nsg7
(lp4336
g4335
asba(i__main__
Node
p4337
(dp4338
g3
Vn02153203
p4339
sg5
I00
sg6
(lp4340
(i__main__
Node
p4341
(dp4342
g3
Vn01795088
p4343
sg5
I00
sg6
(lp4344
(i__main__
Node
p4345
(dp4346
g3
Vn01795545
p4347
sg5
I00
sg6
Nsg7
(lp4348
g4347
asba(i__main__
Node
p4349
(dp4350
g3
Vn01798484
p4351
sg5
I00
sg6
Nsg7
(lp4352
g4351
asba(i__main__
Node
p4353
(dp4354
g3
Vn01796340
p4355
sg5
I00
sg6
Nsg7
(lp4356
g4355
asba(i__main__
Node
p4357
(dp4358
g3
Vn01797886
p4359
sg5
I00
sg6
Nsg7
(lp4360
g4359
asbasg7
(lp4361
g4347
ag4351
ag4355
ag4359
asba(i__main__
Node
p4362
(dp4363
g3
Vn01802721
p4364
sg5
I00
sg6
(lp4365
(i__main__
Node
p4366
(dp4367
g3
Vn01807496
p4368
sg5
I00
sg6
Nsg7
(lp4369
g4368
asbag640
a(i__main__
Node
p4370
(dp4371
g3
Vn01806143
p4372
sg5
I00
sg6
Nsg7
(lp4373
g4372
asbasg7
(lp4374
g4368
ag642
ag4372
asbasg7
(lp4375
g4347
ag4351
ag4355
ag4359
ag4368
ag642
ag4372
asba(i__main__
Node
p4376
(dp4377
g3
Vn01525720
p4378
sg5
I00
sg6
(lp4379
(i__main__
Node
p4380
(dp4381
g3
Vn01578575
p4382
sg5
I00
sg6
(lp4383
(i__main__
Node
p4384
(dp4385
g3
Vn01580077
p4386
sg5
I00
sg6
Nsg7
(lp4387
g4386
asbag522
asg7
(lp4388
g4386
ag524
asba(i__main__
Node
p4389
(dp4390
g3
Vn01529672
p4391
sg5
I00
sg6
(lp4392
(i__main__
Node
p4393
(dp4394
g3
Vn01530575
p4395
sg5
I00
sg6
Nsg7
(lp4396
g4395
asba(i__main__
Node
p4397
(dp4398
g3
Vn01531178
p4399
sg5
I00
sg6
Nsg7
(lp4400
g4399
asba(i__main__
Node
p4401
(dp4402
g3
Vn01532829
p4403
sg5
I00
sg6
Nsg7
(lp4404
g4403
asba(i__main__
Node
p4405
(dp4406
g3
Vn01534433
p4407
sg5
I00
sg6
Nsg7
(lp4408
g4407
asba(i__main__
Node
p4409
(dp4410
g3
Vn01537544
p4411
sg5
I00
sg6
Nsg7
(lp4412
g4411
asbasg7
(lp4413
g4395
ag4399
ag4403
ag4407
ag4411
asba(i__main__
Node
p4414
(dp4415
g3
Vn01557185
p4416
sg5
I00
sg6
(lp4417
(i__main__
Node
p4418
(dp4419
g3
Vn01558993
p4420
sg5
I00
sg6
Nsg7
(lp4421
g4420
asba(i__main__
Node
p4422
(dp4423
g3
Vn01560419
p4424
sg5
I00
sg6
Nsg7
(lp4425
g4424
asbasg7
(lp4426
g4420
ag4424
asba(i__main__
Node
p4427
(dp4428
g3
Vn01601694
p4429
sg5
I00
sg6
Nsg7
(lp4430
g4429
asba(i__main__
Node
p4431
(dp4432
g3
Vn01592084
p4433
sg5
I00
sg6
Nsg7
(lp4434
g4433
asbasg7
(lp4435
g4429
ag4433
ag4386
ag524
ag4395
ag4399
ag4403
ag4407
ag4411
ag4420
ag4424
asba(i__main__
Node
p4436
(dp4437
g3
Vn01518878
p4438
sg5
I00
sg6
Nsg7
(lp4439
g4438
asba(i__main__
Node
p4440
(dp4441
g3
Vn01824575
p4442
sg5
I00
sg6
Nsg7
(lp4443
g4442
asbasg7
(lp4444
g4284
ag431
ag4335
ag4438
ag4442
ag4232
ag4258
ag4267
ag4271
ag4275
ag4279
ag4292
ag4296
ag4305
ag4309
ag4313
ag4317
ag4326
ag4330
ag4429
ag4433
ag4177
ag4181
ag4185
ag4194
ag4198
ag4202
ag4206
ag4210
ag4227
ag4253
ag4347
ag4351
ag4355
ag4359
ag4368
ag642
ag4372
ag4386
ag524
ag4395
ag4399
ag4403
ag4407
ag4411
ag4420
ag4424
ag1255
ag1259
ag1263
ag532
ag549
ag553
ag4218
ag4222
ag4244
ag4248
ag540
ag544
asba(i__main__
Node
p4445
(dp4446
g3
Vn01861778
p4447
sg5
I00
sg6
(lp4448
(i__main__
Node
p4449
(dp4450
g3
Vn01886756
p4451
sg5
I00
sg6
(lp4452
(i__main__
Node
p4453
(dp4454
g3
Vn02062017
p4455
sg5
I00
sg6
(lp4456
g450
a(i__main__
Node
p4457
(dp4458
g3
Vn02074367
p4459
sg5
I00
sg6
Nsg7
(lp4460
g4459
asba(i__main__
Node
p4461
(dp4462
g3
Vn02077923
p4463
sg5
I00
sg6
Nsg7
(lp4464
g4463
asbasg7
(lp4465
g4459
ag4463
ag456
ag460
asba(i__main__
Node
p4466
(dp4467
g3
Vn02075296
p4468
sg5
I00
sg6
(lp4469
(i__main__
Node
p4470
(dp4471
g3
Vn02131653
p4472
sg5
I00
sg6
(lp4473
(i__main__
Node
p4474
(dp4475
g3
Vn02133161
p4476
sg5
I00
sg6
Nsg7
(lp4477
g4476
asbag857
a(i__main__
Node
p4478
(dp4479
g3
Vn02134084
p4480
sg5
I00
sg6
Nsg7
(lp4481
g4480
asba(i__main__
Node
p4482
(dp4483
g3
Vn02134418
p4484
sg5
I00
sg6
Nsg7
(lp4485
g4484
asbasg7
(lp4486
g4476
ag859
ag4480
ag4484
asba(i__main__
Node
p4487
(dp4488
g3
Vn02083346
p4489
sg5
I00
sg6
(lp4490
(i__main__
Node
p4491
(dp4492
g3
Vn02084071
p4493
sg5
I00
sg6
(lp4494
(i__main__
Node
p4495
(dp4496
g3
Vn02110806
p4497
sg5
I00
sg6
Nsg7
(lp4498
g4497
asba(i__main__
Node
p4499
(dp4500
g3
Vn02112826
p4501
sg5
I00
sg6
(lp4502
(i__main__
Node
p4503
(dp4504
g3
Vn02113186
p4505
sg5
I00
sg6
Nsg7
(lp4506
g4505
asba(i__main__
Node
p4507
(dp4508
g3
Vn02113023
p4509
sg5
I00
sg6
Nsg7
(lp4510
g4509
asbasg7
(lp4511
g4505
ag4509
asba(i__main__
Node
p4512
(dp4513
g3
Vn02110341
p4514
sg5
I00
sg6
Nsg7
(lp4515
g4514
asba(i__main__
Node
p4516
(dp4517
g3
Vn02111500
p4518
sg5
I00
sg6
Nsg7
(lp4519
g4518
asba(i__main__
Node
p4520
(dp4521
g3
Vn02087122
p4522
sg5
I00
sg6
(lp4523
(i__main__
Node
p4524
(dp4525
g3
Vn02087551
p4526
sg5
I00
sg6
(lp4527
(i__main__
Node
p4528
(dp4529
g3
Vn02088094
p4530
sg5
I00
sg6
Nsg7
(lp4531
g4530
asba(i__main__
Node
p4532
(dp4533
g3
Vn02088238
p4534
sg5
I00
sg6
Nsg7
(lp4535
g4534
asba(i__main__
Node
p4536
(dp4537
g3
Vn02088364
p4538
sg5
I00
sg6
Nsg7
(lp4539
g4538
asba(i__main__
Node
p4540
(dp4541
g3
Vn02088466
p4542
sg5
I00
sg6
Nsg7
(lp4543
g4542
asba(i__main__
Node
p4544
(dp4545
g3
Vn02088632
p4546
sg5
I00
sg6
Nsg7
(lp4547
g4546
asba(i__main__
Node
p4548
(dp4549
g3
Vn02089555
p4550
sg5
I00
sg6
(lp4551
(i__main__
Node
p4552
(dp4553
g3
Vn02089973
p4554
sg5
I00
sg6
Nsg7
(lp4555
g4554
asba(i__main__
Node
p4556
(dp4557
g3
Vn02089867
p4558
sg5
I00
sg6
Nsg7
(lp4559
g4558
asbasg7
(lp4560
g4554
ag4558
asba(i__main__
Node
p4561
(dp4562
g3
Vn02090827
p4563
sg5
I00
sg6
(lp4564
(i__main__
Node
p4565
(dp4566
g3
Vn02091032
p4567
sg5
I00
sg6
Nsg7
(lp4568
g4567
asba(i__main__
Node
p4569
(dp4570
g3
Vn02091134
p4571
sg5
I00
sg6
Nsg7
(lp4572
g4571
asbasg7
(lp4573
g4567
ag4571
asba(i__main__
Node
p4574
(dp4575
g3
Vn02091244
p4576
sg5
I00
sg6
Nsg7
(lp4577
g4576
asba(i__main__
Node
p4578
(dp4579
g3
Vn02091467
p4580
sg5
I00
sg6
Nsg7
(lp4581
g4580
asba(i__main__
Node
p4582
(dp4583
g3
Vn02091635
p4584
sg5
I00
sg6
Nsg7
(lp4585
g4584
asba(i__main__
Node
p4586
(dp4587
g3
Vn02090379
p4588
sg5
I00
sg6
Nsg7
(lp4589
g4588
asba(i__main__
Node
p4590
(dp4591
g3
Vn02091831
p4592
sg5
I00
sg6
Nsg7
(lp4593
g4592
asba(i__main__
Node
p4594
(dp4595
g3
Vn02092002
p4596
sg5
I00
sg6
Nsg7
(lp4597
g4596
asba(i__main__
Node
p4598
(dp4599
g3
Vn02092339
p4600
sg5
I00
sg6
Nsg7
(lp4601
g4600
asba(i__main__
Node
p4602
(dp4603
g3
Vn02090475
p4604
sg5
I00
sg6
(lp4605
(i__main__
Node
p4606
(dp4607
g3
Vn02090622
p4608
sg5
I00
sg6
Nsg7
(lp4609
g4608
asba(i__main__
Node
p4610
(dp4611
g3
Vn02090721
p4612
sg5
I00
sg6
Nsg7
(lp4613
g4612
asbasg7
(lp4614
g4608
ag4612
asba(i__main__
Node
p4615
(dp4616
g3
Vn02089078
p4617
sg5
I00
sg6
Nsg7
(lp4618
g4617
asbasg7
(lp4619
g4530
ag4534
ag4538
ag4542
ag4546
ag4576
ag4580
ag4584
ag4588
ag4592
ag4596
ag4600
ag4617
ag4554
ag4558
ag4567
ag4571
ag4608
ag4612
asba(i__main__
Node
p4620
(dp4621
g3
Vn02087394
p4622
sg5
I00
sg6
Nsg7
(lp4623
g4622
asba(i__main__
Node
p4624
(dp4625
g3
Vn02098550
p4626
sg5
I00
sg6
(lp4627
(i__main__
Node
p4628
(dp4629
g3
Vn02099997
p4630
sg5
I00
sg6
(lp4631
(i__main__
Node
p4632
(dp4633
g3
Vn02100236
p4634
sg5
I00
sg6
Nsg7
(lp4635
g4634
asba(i__main__
Node
p4636
(dp4637
g3
Vn02100583
p4638
sg5
I00
sg6
Nsg7
(lp4639
g4638
asbasg7
(lp4640
g4634
ag4638
asba(i__main__
Node
p4641
(dp4642
g3
Vn02099029
p4643
sg5
I00
sg6
(lp4644
(i__main__
Node
p4645
(dp4646
g3
Vn02099849
p4647
sg5
I00
sg6
Nsg7
(lp4648
g4647
asba(i__main__
Node
p4649
(dp4650
g3
Vn02099429
p4651
sg5
I00
sg6
Nsg7
(lp4652
g4651
asba(i__main__
Node
p4653
(dp4654
g3
Vn02099267
p4655
sg5
I00
sg6
Nsg7
(lp4656
g4655
asba(i__main__
Node
p4657
(dp4658
g3
Vn02099601
p4659
sg5
I00
sg6
Nsg7
(lp4660
g4659
asba(i__main__
Node
p4661
(dp4662
g3
Vn02099712
p4663
sg5
I00
sg6
Nsg7
(lp4664
g4663
asbasg7
(lp4665
g4647
ag4651
ag4655
ag4659
ag4663
asba(i__main__
Node
p4666
(dp4667
g3
Vn02100399
p4668
sg5
I00
sg6
(lp4669
(i__main__
Node
p4670
(dp4671
g3
Vn02100735
p4672
sg5
I00
sg6
Nsg7
(lp4673
g4672
asba(i__main__
Node
p4674
(dp4675
g3
Vn02101006
p4676
sg5
I00
sg6
Nsg7
(lp4677
g4676
asba(i__main__
Node
p4678
(dp4679
g3
Vn02100877
p4680
sg5
I00
sg6
Nsg7
(lp4681
g4680
asbasg7
(lp4682
g4672
ag4676
ag4680
asba(i__main__
Node
p4683
(dp4684
g3
Vn02101108
p4685
sg5
I00
sg6
(lp4686
g595
a(i__main__
Node
p4687
(dp4688
g3
Vn02101556
p4689
sg5
I00
sg6
Nsg7
(lp4690
g4689
asba(i__main__
Node
p4691
(dp4692
g3
Vn02102318
p4693
sg5
I00
sg6
Nsg7
(lp4694
g4693
asba(i__main__
Node
p4695
(dp4696
g3
Vn02101861
p4697
sg5
I00
sg6
(lp4698
(i__main__
Node
p4699
(dp4700
g3
Vn02102040
p4701
sg5
I00
sg6
Nsg7
(lp4702
g4701
asbag795
asg7
(lp4703
g4701
ag797
asba(i__main__
Node
p4704
(dp4705
g3
Vn02102480
p4706
sg5
I00
sg6
Nsg7
(lp4707
g4706
asba(i__main__
Node
p4708
(dp4709
g3
Vn02102973
p4710
sg5
I00
sg6
Nsg7
(lp4711
g4710
asbasg7
(lp4712
g597
ag4689
ag4693
ag4706
ag4710
ag4701
ag797
asbasg7
(lp4713
g4634
ag4638
ag4647
ag4651
ag4655
ag4659
ag4663
ag4672
ag4676
ag4680
ag597
ag4689
ag4693
ag4706
ag4710
ag4701
ag797
asba(i__main__
Node
p4714
(dp4715
g3
Vn02092468
p4716
sg5
I00
sg6
(lp4717
(i__main__
Node
p4718
(dp4719
g3
Vn02096051
p4720
sg5
I00
sg6
Nsg7
(lp4721
g4720
asba(i__main__
Node
p4722
(dp4723
g3
Vn02096294
p4724
sg5
I00
sg6
Nsg7
(lp4725
g4724
asba(i__main__
Node
p4726
(dp4727
g3
Vn02093647
p4728
sg5
I00
sg6
Nsg7
(lp4729
g4728
asba(i__main__
Node
p4730
(dp4731
g3
Vn02093754
p4732
sg5
I00
sg6
Nsg7
(lp4733
g4732
asba(i__main__
Node
p4734
(dp4735
g3
Vn02096585
p4736
sg5
I00
sg6
Nsg7
(lp4737
g4736
asba(i__main__
Node
p4738
(dp4739
g3
Vn02093056
p4740
sg5
I00
sg6
(lp4741
(i__main__
Node
p4742
(dp4743
g3
Vn02093428
p4744
sg5
I00
sg6
Nsg7
(lp4745
g4744
asba(i__main__
Node
p4746
(dp4747
g3
Vn02093256
p4748
sg5
I00
sg6
Nsg7
(lp4749
g4748
asbasg7
(lp4750
g4744
ag4748
asba(i__main__
Node
p4751
(dp4752
g3
Vn02096177
p4753
sg5
I00
sg6
Nsg7
(lp4754
g4753
asba(i__main__
Node
p4755
(dp4756
g3
Vn02096437
p4757
sg5
I00
sg6
Nsg7
(lp4758
g4757
asba(i__main__
Node
p4759
(dp4760
g3
Vn02093991
p4761
sg5
I00
sg6
Nsg7
(lp4762
g4761
asba(i__main__
Node
p4763
(dp4764
g3
Vn02093859
p4765
sg5
I00
sg6
Nsg7
(lp4766
g4765
asba(i__main__
Node
p4767
(dp4768
g3
Vn02098413
p4769
sg5
I00
sg6
Nsg7
(lp4770
g4769
asba(i__main__
Node
p4771
(dp4772
g3
Vn02094114
p4773
sg5
I00
sg6
Nsg7
(lp4774
g4773
asbag840
ag757
a(i__main__
Node
p4775
(dp4776
g3
Vn02097298
p4777
sg5
I00
sg6
Nsg7
(lp4778
g4777
asba(i__main__
Node
p4779
(dp4780
g3
Vn02097658
p4781
sg5
I00
sg6
Nsg7
(lp4782
g4781
asba(i__main__
Node
p4783
(dp4784
g3
Vn02098105
p4785
sg5
I00
sg6
Nsg7
(lp4786
g4785
asba(i__main__
Node
p4787
(dp4788
g3
Vn02097474
p4789
sg5
I00
sg6
Nsg7
(lp4790
g4789
asba(i__main__
Node
p4791
(dp4792
g3
Vn02098286
p4793
sg5
I00
sg6
Nsg7
(lp4794
g4793
asba(i__main__
Node
p4795
(dp4796
g3
Vn02095412
p4797
sg5
I00
sg6
(lp4798
g34
a(i__main__
Node
p4799
(dp4800
g3
Vn02095889
p4801
sg5
I00
sg6
Nsg7
(lp4802
g4801
asbasg7
(lp4803
g36
ag4801
asba(i__main__
Node
p4804
(dp4805
g3
Vn02094433
p4806
sg5
I00
sg6
Nsg7
(lp4807
g4806
asba(i__main__
Node
p4808
(dp4809
g3
Vn02095314
p4810
sg5
I00
sg6
Nsg7
(lp4811
g4810
asbasg7
(lp4812
g4720
ag4724
ag4728
ag4732
ag4736
ag4753
ag4757
ag4761
ag4765
ag4769
ag4773
ag842
ag4777
ag4781
ag4785
ag4789
ag4793
ag4806
ag4810
ag4744
ag4748
ag763
ag767
ag771
ag36
ag4801
asbasg7
(lp4813
g4622
ag4530
ag4534
ag4538
ag4542
ag4546
ag4576
ag4580
ag4584
ag4588
ag4592
ag4596
ag4600
ag4617
ag4720
ag4724
ag4728
ag4732
ag4736
ag4753
ag4757
ag4761
ag4765
ag4769
ag4773
ag842
ag4777
ag4781
ag4785
ag4789
ag4793
ag4806
ag4810
ag4554
ag4558
ag4567
ag4571
ag4608
ag4612
ag4634
ag4638
ag4647
ag4651
ag4655
ag4659
ag4663
ag4672
ag4676
ag4680
ag597
ag4689
ag4693
ag4706
ag4710
ag4744
ag4748
ag763
ag767
ag771
ag36
ag4801
ag4701
ag797
asba(i__main__
Node
p4814
(dp4815
g3
Vn02111129
p4816
sg5
I00
sg6
Nsg7
(lp4817
g4816
asbag778
a(i__main__
Node
p4818
(dp4819
g3
Vn02111277
p4820
sg5
I00
sg6
Nsg7
(lp4821
g4820
asba(i__main__
Node
p4822
(dp4823
g3
Vn02113335
p4824
sg5
I00
sg6
(lp4825
(i__main__
Node
p4826
(dp4827
g3
Vn02113712
p4828
sg5
I00
sg6
Nsg7
(lp4829
g4828
asba(i__main__
Node
p4830
(dp4831
g3
Vn02113799
p4832
sg5
I00
sg6
Nsg7
(lp4833
g4832
asba(i__main__
Node
p4834
(dp4835
g3
Vn02113624
p4836
sg5
I00
sg6
Nsg7
(lp4837
g4836
asbasg7
(lp4838
g4828
ag4832
ag4836
asba(i__main__
Node
p4839
(dp4840
g3
Vn02110958
p4841
sg5
I00
sg6
Nsg7
(lp4842
g4841
asba(i__main__
Node
p4843
(dp4844
g3
Vn02111626
p4845
sg5
I00
sg6
(lp4846
(i__main__
Node
p4847
(dp4848
g3
Vn02112137
p4849
sg5
I00
sg6
Nsg7
(lp4850
g4849
asba(i__main__
Node
p4851
(dp4852
g3
Vn02112350
p4853
sg5
I00
sg6
Nsg7
(lp4854
g4853
asba(i__main__
Node
p4855
(dp4856
g3
Vn02112018
p4857
sg5
I00
sg6
Nsg7
(lp4858
g4857
asba(i__main__
Node
p4859
(dp4860
g3
Vn02111889
p4861
sg5
I00
sg6
Nsg7
(lp4862
g4861
asbasg7
(lp4863
g4849
ag4853
ag4857
ag4861
asba(i__main__
Node
p4864
(dp4865
g3
Vn02085374
p4866
sg5
I00
sg6
(lp4867
(i__main__
Node
p4868
(dp4869
g3
Vn02085620
p4870
sg5
I00
sg6
Nsg7
(lp4871
g4870
asba(i__main__
Node
p4872
(dp4873
g3
Vn02085782
p4874
sg5
I00
sg6
Nsg7
(lp4875
g4874
asba(i__main__
Node
p4876
(dp4877
g3
Vn02085936
p4878
sg5
I00
sg6
Nsg7
(lp4879
g4878
asba(i__main__
Node
p4880
(dp4881
g3
Vn02086079
p4882
sg5
I00
sg6
Nsg7
(lp4883
g4882
asba(i__main__
Node
p4884
(dp4885
g3
Vn02086240
p4886
sg5
I00
sg6
Nsg7
(lp4887
g4886
asba(i__main__
Node
p4888
(dp4889
g3
Vn02086346
p4890
sg5
I00
sg6
(lp4891
(i__main__
Node
p4892
(dp4893
g3
Vn02086910
p4894
sg5
I00
sg6
Nsg7
(lp4895
g4894
asba(i__main__
Node
p4896
(dp4897
g3
Vn02086646
p4898
sg5
I00
sg6
Nsg7
(lp4899
g4898
asbasg7
(lp4900
g4894
ag4898
asba(i__main__
Node
p4901
(dp4902
g3
Vn02087046
p4903
sg5
I00
sg6
Nsg7
(lp4904
g4903
asbasg7
(lp4905
g4870
ag4874
ag4878
ag4882
ag4886
ag4903
ag4894
ag4898
asba(i__main__
Node
p4906
(dp4907
g3
Vn02103406
p4908
sg5
I00
sg6
(lp4909
(i__main__
Node
p4910
(dp4911
g3
Vn02108089
p4912
sg5
I00
sg6
Nsg7
(lp4913
g4912
asba(i__main__
Node
p4914
(dp4915
g3
Vn02108422
p4916
sg5
I00
sg6
Nsg7
(lp4917
g4916
asba(i__main__
Node
p4918
(dp4919
g3
Vn02109961
p4920
sg5
I00
sg6
Nsg7
(lp4921
g4920
asba(i__main__
Node
p4922
(dp4923
g3
Vn02109047
p4924
sg5
I00
sg6
Nsg7
(lp4925
g4924
asba(i__main__
Node
p4926
(dp4927
g3
Vn02109525
p4928
sg5
I00
sg6
Nsg7
(lp4929
g4928
asba(i__main__
Node
p4930
(dp4931
g3
Vn02107420
p4932
sg5
I00
sg6
(lp4933
(i__main__
Node
p4934
(dp4935
g3
Vn02107908
p4936
sg5
I00
sg6
Nsg7
(lp4937
g4936
asba(i__main__
Node
p4938
(dp4939
g3
Vn02107683
p4940
sg5
I00
sg6
Nsg7
(lp4941
g4940
asbag1216
a(i__main__
Node
p4942
(dp4943
g3
Vn02107574
p4944
sg5
I00
sg6
Nsg7
(lp4945
g4944
asbasg7
(lp4946
g4936
ag4940
ag1218
ag4944
asba(i__main__
Node
p4947
(dp4948
g3
Vn02104523
p4949
sg5
I00
sg6
(lp4950
(i__main__
Node
p4951
(dp4952
g3
Vn02104882
p4953
sg5
I00
sg6
(lp4954
(i__main__
Node
p4955
(dp4956
g3
Vn02105056
p4957
sg5
I00
sg6
Nsg7
(lp4958
g4957
asba(i__main__
Node
p4959
(dp4960
g3
Vn02105162
p4961
sg5
I00
sg6
Nsg7
(lp4962
g4961
asbasg7
(lp4963
g4957
ag4961
asba(i__main__
Node
p4964
(dp4965
g3
Vn02106166
p4966
sg5
I00
sg6
Nsg7
(lp4967
g4966
asba(i__main__
Node
p4968
(dp4969
g3
Vn02106382
p4970
sg5
I00
sg6
Nsg7
(lp4971
g4970
asba(i__main__
Node
p4972
(dp4973
g3
Vn02105251
p4974
sg5
I00
sg6
Nsg7
(lp4975
g4974
asba(i__main__
Node
p4976
(dp4977
g3
Vn02106030
p4978
sg5
I00
sg6
Nsg7
(lp4979
g4978
asba(i__main__
Node
p4980
(dp4981
g3
Vn02106662
p4982
sg5
I00
sg6
Nsg7
(lp4983
g4982
asba(i__main__
Node
p4984
(dp4985
g3
Vn02105412
p4986
sg5
I00
sg6
Nsg7
(lp4987
g4986
asba(i__main__
Node
p4988
(dp4989
g3
Vn02105505
p4990
sg5
I00
sg6
Nsg7
(lp4991
g4990
asba(i__main__
Node
p4992
(dp4993
g3
Vn02105641
p4994
sg5
I00
sg6
Nsg7
(lp4995
g4994
asba(i__main__
Node
p4996
(dp4997
g3
Vn02106550
p4998
sg5
I00
sg6
Nsg7
(lp4999
g4998
asba(i__main__
Node
p5000
(dp5001
g3
Vn02105855
p5002
sg5
I00
sg6
Nsg7
(lp5003
g5002
asbasg7
(lp5004
g4966
ag4970
ag4974
ag4978
ag4982
ag4986
ag4990
ag4994
ag4998
ag5002
ag4957
ag4961
asba(i__main__
Node
p5005
(dp5006
g3
Vn02109811
p5007
sg5
I00
sg6
(lp5008
(i__main__
Node
p5009
(dp5010
g3
Vn02110063
p5011
sg5
I00
sg6
Nsg7
(lp5012
g5011
asba(i__main__
Node
p5013
(dp5014
g3
Vn02110185
p5015
sg5
I00
sg6
Nsg7
(lp5016
g5015
asbasg7
(lp5017
g5011
ag5015
asba(i__main__
Node
p5018
(dp5019
g3
Vn02103841
p5020
sg5
I00
sg6
(lp5021
(i__main__
Node
p5022
(dp5023
g3
Vn02104029
p5024
sg5
I00
sg6
Nsg7
(lp5025
g5024
asba(i__main__
Node
p5026
(dp5027
g3
Vn02106966
p5028
sg5
I00
sg6
(lp5029
(i__main__
Node
p5030
(dp5031
g3
Vn02110627
p5032
sg5
I00
sg6
Nsg7
(lp5033
g5032
asba(i__main__
Node
p5034
(dp5035
g3
Vn02107142
p5036
sg5
I00
sg6
Nsg7
(lp5037
g5036
asba(i__main__
Node
p5038
(dp5039
g3
Vn02107312
p5040
sg5
I00
sg6
Nsg7
(lp5041
g5040
asbasg7
(lp5042
g5032
ag5036
ag5040
asba(i__main__
Node
p5043
(dp5044
g3
Vn02104365
p5045
sg5
I00
sg6
Nsg7
(lp5046
g5045
asbasg7
(lp5047
g5024
ag5045
ag5032
ag5036
ag5040
asba(i__main__
Node
p5048
(dp5049
g3
Vn02108915
p5050
sg5
I00
sg6
Nsg7
(lp5051
g5050
asba(i__main__
Node
p5052
(dp5053
g3
Vn02108551
p5054
sg5
I00
sg6
Nsg7
(lp5055
g5054
asbasg7
(lp5056
g4912
ag4916
ag4920
ag4924
ag4928
ag5050
ag5054
ag4936
ag4940
ag1218
ag4944
ag4966
ag4970
ag4974
ag4978
ag4982
ag4986
ag4990
ag4994
ag4998
ag5002
ag5011
ag5015
ag5024
ag5045
ag4957
ag4961
ag5032
ag5036
ag5040
asba(i__main__
Node
p5057
(dp5058
g3
Vn02112706
p5059
sg5
I00
sg6
Nsg7
(lp5060
g5059
asbasg7
(lp5061
g4497
ag4514
ag4518
ag4816
ag780
ag4820
ag4841
ag5059
ag4505
ag4509
ag4622
ag4828
ag4832
ag4836
ag4849
ag4853
ag4857
ag4861
ag4870
ag4874
ag4878
ag4882
ag4886
ag4903
ag4912
ag4916
ag4920
ag4924
ag4928
ag5050
ag5054
ag4530
ag4534
ag4538
ag4542
ag4546
ag4576
ag4580
ag4584
ag4588
ag4592
ag4596
ag4600
ag4617
ag4720
ag4724
ag4728
ag4732
ag4736
ag4753
ag4757
ag4761
ag4765
ag4769
ag4773
ag842
ag4777
ag4781
ag4785
ag4789
ag4793
ag4806
ag4810
ag4894
ag4898
ag4936
ag4940
ag1218
ag4944
ag4966
ag4970
ag4974
ag4978
ag4982
ag4986
ag4990
ag4994
ag4998
ag5002
ag5011
ag5015
ag5024
ag5045
ag4554
ag4558
ag4567
ag4571
ag4608
ag4612
ag4634
ag4638
ag4647
ag4651
ag4655
ag4659
ag4663
ag4672
ag4676
ag4680
ag597
ag4689
ag4693
ag4706
ag4710
ag4744
ag4748
ag763
ag767
ag771
ag36
ag4801
ag4957
ag4961
ag5032
ag5036
ag5040
ag4701
ag797
asba(i__main__
Node
p5062
(dp5063
g3
Vn02118333
p5064
sg5
I00
sg6
(lp5065
(i__main__
Node
p5066
(dp5067
g3
Vn02120079
p5068
sg5
I00
sg6
Nsg7
(lp5069
g5068
asba(i__main__
Node
p5070
(dp5071
g3
Vn02120505
p5072
sg5
I00
sg6
Nsg7
(lp5073
g5072
asbag619
a(i__main__
Node
p5074
(dp5075
g3
Vn02119022
p5076
sg5
I00
sg6
Nsg7
(lp5077
g5076
asbasg7
(lp5078
g5068
ag5072
ag621
ag5076
asbag615
a(i__main__
Node
p5079
(dp5080
g3
Vn02115335
p5081
sg5
I00
sg6
(lp5082
(i__main__
Node
p5083
(dp5084
g3
Vn02116738
p5085
sg5
I00
sg6
Nsg7
(lp5086
g5085
asba(i__main__
Node
p5087
(dp5088
g3
Vn02115913
p5089
sg5
I00
sg6
Nsg7
(lp5090
g5089
asba(i__main__
Node
p5091
(dp5092
g3
Vn02115641
p5093
sg5
I00
sg6
Nsg7
(lp5094
g5093
asbasg7
(lp5095
g5085
ag5089
ag5093
asba(i__main__
Node
p5096
(dp5097
g3
Vn02114100
p5098
sg5
I00
sg6
(lp5099
(i__main__
Node
p5100
(dp5101
g3
Vn02114855
p5102
sg5
I00
sg6
Nsg7
(lp5103
g5102
asba(i__main__
Node
p5104
(dp5105
g3
Vn02114712
p5106
sg5
I00
sg6
Nsg7
(lp5107
g5106
asba(i__main__
Node
p5108
(dp5109
g3
Vn02114367
p5110
sg5
I00
sg6
Nsg7
(lp5111
g5110
asba(i__main__
Node
p5112
(dp5113
g3
Vn02114548
p5114
sg5
I00
sg6
Nsg7
(lp5115
g5114
asbasg7
(lp5116
g5102
ag5106
ag5110
ag5114
asbasg7
(lp5117
g617
ag4497
ag4514
ag4518
ag4816
ag780
ag4820
ag4841
ag5059
ag5068
ag5072
ag621
ag5076
ag5085
ag5089
ag5093
ag5102
ag5106
ag5110
ag5114
ag4505
ag4509
ag4622
ag4828
ag4832
ag4836
ag4849
ag4853
ag4857
ag4861
ag4870
ag4874
ag4878
ag4882
ag4886
ag4903
ag4912
ag4916
ag4920
ag4924
ag4928
ag5050
ag5054
ag4530
ag4534
ag4538
ag4542
ag4546
ag4576
ag4580
ag4584
ag4588
ag4592
ag4596
ag4600
ag4617
ag4720
ag4724
ag4728
ag4732
ag4736
ag4753
ag4757
ag4761
ag4765
ag4769
ag4773
ag842
ag4777
ag4781
ag4785
ag4789
ag4793
ag4806
ag4810
ag4894
ag4898
ag4936
ag4940
ag1218
ag4944
ag4966
ag4970
ag4974
ag4978
ag4982
ag4986
ag4990
ag4994
ag4998
ag5002
ag5011
ag5015
ag5024
ag5045
ag4554
ag4558
ag4567
ag4571
ag4608
ag4612
ag4634
ag4638
ag4647
ag4651
ag4655
ag4659
ag4663
ag4672
ag4676
ag4680
ag597
ag4689
ag4693
ag4706
ag4710
ag4744
ag4748
ag763
ag767
ag771
ag36
ag4801
ag4957
ag4961
ag5032
ag5036
ag5040
ag4701
ag797
asba(i__main__
Node
p5118
(dp5119
g3
Vn02120997
p5120
sg5
I00
sg6
(lp5121
(i__main__
Node
p5122
(dp5123
g3
Vn02127808
p5124
sg5
I00
sg6
(lp5125
(i__main__
Node
p5126
(dp5127
g3
Vn02130308
p5128
sg5
I00
sg6
Nsg7
(lp5129
g5128
asba(i__main__
Node
p5130
(dp5131
g3
Vn02128925
p5132
sg5
I00
sg6
Nsg7
(lp5133
g5132
asba(i__main__
Node
p5134
(dp5135
g3
Vn02128385
p5136
sg5
I00
sg6
Nsg7
(lp5137
g5136
asba(i__main__
Node
p5138
(dp5139
g3
Vn02129165
p5140
sg5
I00
sg6
Nsg7
(lp5141
g5140
asba(i__main__
Node
p5142
(dp5143
g3
Vn02128757
p5144
sg5
I00
sg6
Nsg7
(lp5145
g5144
asba(i__main__
Node
p5146
(dp5147
g3
Vn02129604
p5148
sg5
I00
sg6
Nsg7
(lp5149
g5148
asbasg7
(lp5150
g5128
ag5132
ag5136
ag5140
ag5144
ag5148
asba(i__main__
Node
p5151
(dp5152
g3
Vn02121620
p5153
sg5
I00
sg6
(lp5154
(i__main__
Node
p5155
(dp5156
g3
Vn02121808
p5157
sg5
I00
sg6
(lp5158
(i__main__
Node
p5159
(dp5160
g3
Vn02124075
p5161
sg5
I00
sg6
Nsg7
(lp5162
g5161
asba(i__main__
Node
p5163
(dp5164
g3
Vn02123394
p5165
sg5
I00
sg6
Nsg7
(lp5166
g5165
asba(i__main__
Node
p5167
(dp5168
g3
Vn02123597
p5169
sg5
I00
sg6
Nsg7
(lp5170
g5169
asba(i__main__
Node
p5171
(dp5172
g3
Vn02123045
p5173
sg5
I00
sg6
Nsg7
(lp5174
g5173
asbag1212
asg7
(lp5175
g5161
ag5165
ag5169
ag5173
ag1214
asbag471
asg7
(lp5176
g5161
ag5165
ag5169
ag5173
ag1214
ag477
ag481
asbasg7
(lp5177
g5128
ag5132
ag5136
ag5140
ag5144
ag5148
ag5161
ag5165
ag5169
ag5173
ag1214
ag477
ag481
asba(i__main__
Node
p5178
(dp5179
g3
Vn02441326
p5180
sg5
I00
sg6
(lp5181
(i__main__
Node
p5182
(dp5183
g3
Vn02447366
p5184
sg5
I00
sg6
Nsg7
(lp5185
g5184
asba(i__main__
Node
p5186
(dp5187
g3
Vn02443484
p5188
sg5
I00
sg6
Nsg7
(lp5189
g5188
asba(i__main__
Node
p5190
(dp5191
g3
Vn02442845
p5192
sg5
I00
sg6
Nsg7
(lp5193
g5192
asba(i__main__
Node
p5194
(dp5195
g3
Vn02444819
p5196
sg5
I00
sg6
Nsg7
(lp5197
g5196
asba(i__main__
Node
p5198
(dp5199
g3
Vn02443114
p5200
sg5
I00
sg6
Nsg7
(lp5201
g5200
asba(i__main__
Node
p5202
(dp5203
g3
Vn02445715
p5204
sg5
I00
sg6
Nsg7
(lp5205
g5204
asba(i__main__
Node
p5206
(dp5207
g3
Vn02441942
p5208
sg5
I00
sg6
Nsg7
(lp5209
g5208
asbasg7
(lp5210
g5184
ag5188
ag5192
ag5196
ag5200
ag5204
ag5208
asbag556
a(i__main__
Node
p5211
(dp5212
g3
Vn02134971
p5213
sg5
I00
sg6
(lp5214
(i__main__
Node
p5215
(dp5216
g3
Vn02138441
p5217
sg5
I00
sg6
Nsg7
(lp5218
g5217
asba(i__main__
Node
p5219
(dp5220
g3
Vn02137549
p5221
sg5
I00
sg6
Nsg7
(lp5222
g5221
asbasg7
(lp5223
g5217
ag5221
asbasg7
(lp5224
g4476
ag859
ag4480
ag4484
ag617
ag5184
ag5188
ag5192
ag5196
ag5200
ag5204
ag5208
ag562
ag566
ag5217
ag5221
ag4497
ag4514
ag4518
ag4816
ag780
ag4820
ag4841
ag5059
ag5068
ag5072
ag621
ag5076
ag5085
ag5089
ag5093
ag5102
ag5106
ag5110
ag5114
ag5128
ag5132
ag5136
ag5140
ag5144
ag5148
ag4505
ag4509
ag4622
ag4828
ag4832
ag4836
ag4849
ag4853
ag4857
ag4861
ag4870
ag4874
ag4878
ag4882
ag4886
ag4903
ag4912
ag4916
ag4920
ag4924
ag4928
ag5050
ag5054
ag5161
ag5165
ag5169
ag5173
ag1214
ag477
ag481
ag4530
ag4534
ag4538
ag4542
ag4546
ag4576
ag4580
ag4584
ag4588
ag4592
ag4596
ag4600
ag4617
ag4720
ag4724
ag4728
ag4732
ag4736
ag4753
ag4757
ag4761
ag4765
ag4769
ag4773
ag842
ag4777
ag4781
ag4785
ag4789
ag4793
ag4806
ag4810
ag4894
ag4898
ag4936
ag4940
ag1218
ag4944
ag4966
ag4970
ag4974
ag4978
ag4982
ag4986
ag4990
ag4994
ag4998
ag5002
ag5011
ag5015
ag5024
ag5045
ag4554
ag4558
ag4567
ag4571
ag4608
ag4612
ag4634
ag4638
ag4647
ag4651
ag4655
ag4659
ag4663
ag4672
ag4676
ag4680
ag597
ag4689
ag4693
ag4706
ag4710
ag4744
ag4748
ag763
ag767
ag771
ag36
ag4801
ag4957
ag4961
ag5032
ag5036
ag5040
ag4701
ag797
asba(i__main__
Node
p5225
(dp5226
g3
Vn02453611
p5227
sg5
I00
sg6
(lp5228
(i__main__
Node
p5229
(dp5230
g3
Vn02454379
p5231
sg5
I00
sg6
Nsg7
(lp5232
g5231
asba(i__main__
Node
p5233
(dp5234
g3
Vn02457408
p5235
sg5
I00
sg6
Nsg7
(lp5236
g5235
asbasg7
(lp5237
g5231
ag5235
asba(i__main__
Node
p5238
(dp5239
g3
Vn02469914
p5240
sg5
I00
sg6
(lp5241
(i__main__
Node
p5242
(dp5243
g3
Vn02496913
p5244
sg5
I00
sg6
(lp5245
(i__main__
Node
p5246
(dp5247
g3
Vn02500267
p5248
sg5
I00
sg6
Nsg7
(lp5249
g5248
asba(i__main__
Node
p5250
(dp5251
g3
Vn02497673
p5252
sg5
I00
sg6
Nsg7
(lp5253
g5252
asbasg7
(lp5254
g5248
ag5252
asba(i__main__
Node
p5255
(dp5256
g3
Vn02484322
p5257
sg5
I00
sg6
(lp5258
(i__main__
Node
p5259
(dp5260
g3
Vn02489589
p5261
sg5
I00
sg6
(lp5262
(i__main__
Node
p5263
(dp5264
g3
Vn02492035
p5265
sg5
I00
sg6
Nsg7
(lp5266
g5265
asba(i__main__
Node
p5267
(dp5268
g3
Vn02492660
p5269
sg5
I00
sg6
Nsg7
(lp5270
g5269
asba(i__main__
Node
p5271
(dp5272
g3
Vn02490219
p5273
sg5
I00
sg6
Nsg7
(lp5274
g5273
asba(i__main__
Node
p5275
(dp5276
g3
Vn02493793
p5277
sg5
I00
sg6
Nsg7
(lp5278
g5277
asba(i__main__
Node
p5279
(dp5280
g3
Vn02494079
p5281
sg5
I00
sg6
Nsg7
(lp5282
g5281
asba(i__main__
Node
p5283
(dp5284
g3
Vn02493509
p5285
sg5
I00
sg6
Nsg7
(lp5286
g5285
asbasg7
(lp5287
g5265
ag5269
ag5273
ag5277
ag5281
ag5285
asba(i__main__
Node
p5288
(dp5289
g3
Vn02484473
p5290
sg5
I00
sg6
(lp5291
(i__main__
Node
p5292
(dp5293
g3
Vn02486410
p5294
sg5
I00
sg6
Nsg7
(lp5295
g5294
asba(i__main__
Node
p5296
(dp5297
g3
Vn02488702
p5298
sg5
I00
sg6
Nsg7
(lp5299
g5298
asba(i__main__
Node
p5300
(dp5301
g3
Vn02484975
p5302
sg5
I00
sg6
Nsg7
(lp5303
g5302
asba(i__main__
Node
p5304
(dp5305
g3
Vn02488291
p5306
sg5
I00
sg6
Nsg7
(lp5307
g5306
asba(i__main__
Node
p5308
(dp5309
g3
Vn02487347
p5310
sg5
I00
sg6
Nsg7
(lp5311
g5310
asba(i__main__
Node
p5312
(dp5313
g3
Vn02486261
p5314
sg5
I00
sg6
Nsg7
(lp5315
g5314
asba(i__main__
Node
p5316
(dp5317
g3
Vn02489166
p5318
sg5
I00
sg6
Nsg7
(lp5319
g5318
asbasg7
(lp5320
g5294
ag5298
ag5302
ag5306
ag5310
ag5314
ag5318
asbasg7
(lp5321
g5265
ag5269
ag5273
ag5277
ag5281
ag5285
ag5294
ag5298
ag5302
ag5306
ag5310
ag5314
ag5318
asba(i__main__
Node
p5322
(dp5323
g3
Vn02470899
p5324
sg5
I00
sg6
(lp5325
(i__main__
Node
p5326
(dp5327
g3
Vn02480153
p5328
sg5
I00
sg6
(lp5329
g46
a(i__main__
Node
p5330
(dp5331
g3
Vn02480855
p5332
sg5
I00
sg6
Nsg7
(lp5333
g5332
asba(i__main__
Node
p5334
(dp5335
g3
Vn02480495
p5336
sg5
I00
sg6
Nsg7
(lp5337
g5336
asbasg7
(lp5338
g48
ag5332
ag5336
asba(i__main__
Node
p5339
(dp5340
g3
Vn02483092
p5341
sg5
I00
sg6
(lp5342
(i__main__
Node
p5343
(dp5344
g3
Vn02483362
p5345
sg5
I00
sg6
Nsg7
(lp5346
g5345
asba(i__main__
Node
p5347
(dp5348
g3
Vn02483708
p5349
sg5
I00
sg6
Nsg7
(lp5350
g5349
asbasg7
(lp5351
g5345
ag5349
asbasg7
(lp5352
g48
ag5332
ag5336
ag5345
ag5349
asbasg7
(lp5353
g5248
ag5252
ag5265
ag5269
ag5273
ag5277
ag5281
ag5285
ag5294
ag5298
ag5302
ag5306
ag5310
ag5314
ag5318
ag48
ag5332
ag5336
ag5345
ag5349
asba(i__main__
Node
p5354
(dp5355
g3
Vn02329401
p5356
sg5
I00
sg6
(lp5357
(i__main__
Node
p5358
(dp5359
g3
Vn02363005
p5360
sg5
I00
sg6
Nsg7
(lp5361
g5360
asba(i__main__
Node
p5362
(dp5363
g3
Vn02342885
p5364
sg5
I00
sg6
Nsg7
(lp5365
g5364
asba(i__main__
Node
p5366
(dp5367
g3
Vn02361337
p5368
sg5
I00
sg6
Nsg7
(lp5369
g5368
asba(i__main__
Node
p5370
(dp5371
g3
Vn02346627
p5372
sg5
I00
sg6
Nsg7
(lp5373
g5372
asba(i__main__
Node
p5374
(dp5375
g3
Vn02364673
p5376
sg5
I00
sg6
Nsg7
(lp5377
g5376
asba(i__main__
Node
p5378
(dp5379
g3
Vn02356798
p5380
sg5
I00
sg6
Nsg7
(lp5381
g5380
asbasg7
(lp5382
g5360
ag5364
ag5368
ag5372
ag5376
ag5380
asba(i__main__
Node
p5383
(dp5384
g3
Vn02370806
p5385
sg5
I00
sg6
(lp5386
(i__main__
Node
p5387
(dp5388
g3
Vn02394477
p5389
sg5
I00
sg6
(lp5390
(i__main__
Node
p5391
(dp5392
g3
Vn02398521
p5393
sg5
I00
sg6
Nsg7
(lp5394
g5393
asba(i__main__
Node
p5395
(dp5396
g3
Vn02437616
p5397
sg5
I00
sg6
Nsg7
(lp5398
g5397
asbag1220
a(i__main__
Node
p5399
(dp5400
g3
Vn02437312
p5401
sg5
I00
sg6
Nsg7
(lp5402
g5401
asba(i__main__
Node
p5403
(dp5404
g3
Vn02401031
p5405
sg5
I00
sg6
(lp5406
(i__main__
Node
p5407
(dp5408
g3
Vn02419796
p5409
sg5
I00
sg6
(lp5410
(i__main__
Node
p5411
(dp5412
g3
Vn02423022
p5413
sg5
I00
sg6
Nsg7
(lp5414
g5413
asba(i__main__
Node
p5415
(dp5416
g3
Vn02422106
p5417
sg5
I00
sg6
Nsg7
(lp5418
g5417
asba(i__main__
Node
p5419
(dp5420
g3
Vn02422699
p5421
sg5
I00
sg6
Nsg7
(lp5422
g5421
asbasg7
(lp5423
g5413
ag5417
ag5421
asba(i__main__
Node
p5424
(dp5425
g3
Vn02410509
p5426
sg5
I00
sg6
Nsg7
(lp5427
g5426
asba(i__main__
Node
p5428
(dp5429
g3
Vn02408429
p5430
sg5
I00
sg6
Nsg7
(lp5431
g5430
asba(i__main__
Node
p5432
(dp5433
g3
Vn02412080
p5434
sg5
I00
sg6
Nsg7
(lp5435
g5434
asbag861
a(i__main__
Node
p5436
(dp5437
g3
Vn02417914
p5438
sg5
I00
sg6
Nsg7
(lp5439
g5438
asba(i__main__
Node
p5440
(dp5441
g3
Vn02415577
p5442
sg5
I00
sg6
Nsg7
(lp5443
g5442
asbasg7
(lp5444
g5426
ag5430
ag5434
ag863
ag5438
ag5442
ag5413
ag5417
ag5421
asbasg7
(lp5445
g5393
ag5397
ag5401
ag1226
ag1230
ag1234
ag5426
ag5430
ag5434
ag863
ag5438
ag5442
ag5413
ag5417
ag5421
asba(i__main__
Node
p5446
(dp5447
g3
Vn02374149
p5448
sg5
I00
sg6
(lp5449
(i__main__
Node
p5450
(dp5451
g3
Vn02391049
p5452
sg5
I00
sg6
Nsg7
(lp5453
g5452
asbag488
asg7
(lp5454
g5452
ag490
asbasg7
(lp5455
g5393
ag5397
ag5401
ag5452
ag490
ag1226
ag1230
ag1234
ag5426
ag5430
ag5434
ag863
ag5438
ag5442
ag5413
ag5417
ag5421
asba(i__main__
Node
p5456
(dp5457
g3
Vn02323902
p5458
sg5
I00
sg6
(lp5459
(i__main__
Node
p5460
(dp5461
g3
Vn02326432
p5462
sg5
I00
sg6
Nsg7
(lp5463
g5462
asba(i__main__
Node
p5464
(dp5465
g3
Vn02324045
p5466
sg5
I00
sg6
(lp5467
(i__main__
Node
p5468
(dp5469
g3
Vn02328150
p5470
sg5
I00
sg6
Nsg7
(lp5471
g5470
asba(i__main__
Node
p5472
(dp5473
g3
Vn02325366
p5474
sg5
I00
sg6
Nsg7
(lp5475
g5474
asbasg7
(lp5476
g5470
ag5474
asbasg7
(lp5477
g5462
ag5470
ag5474
asba(i__main__
Node
p5478
(dp5479
g3
Vn02503517
p5480
sg5
I00
sg6
(lp5481
(i__main__
Node
p5482
(dp5483
g3
Vn02504458
p5484
sg5
I00
sg6
Nsg7
(lp5485
g5484
asba(i__main__
Node
p5486
(dp5487
g3
Vn02504013
p5488
sg5
I00
sg6
Nsg7
(lp5489
g5488
asbasg7
(lp5490
g5484
ag5488
asbag5478
asg7
(lp5491
g4459
ag4463
ag5231
ag5235
ag5360
ag5364
ag5368
ag5372
ag5376
ag5380
ag5462
ag5484
ag5488
ag456
ag460
ag4476
ag859
ag4480
ag4484
ag617
ag5184
ag5188
ag5192
ag5196
ag5200
ag5204
ag5208
ag562
ag566
ag5217
ag5221
ag5248
ag5252
ag5393
ag5397
ag5401
ag5452
ag490
ag5470
ag5474
ag4497
ag4514
ag4518
ag4816
ag780
ag4820
ag4841
ag5059
ag5068
ag5072
ag621
ag5076
ag5085
ag5089
ag5093
ag5102
ag5106
ag5110
ag5114
ag5128
ag5132
ag5136
ag5140
ag5144
ag5148
ag5265
ag5269
ag5273
ag5277
ag5281
ag5285
ag5294
ag5298
ag5302
ag5306
ag5310
ag5314
ag5318
ag48
ag5332
ag5336
ag5345
ag5349
ag1226
ag1230
ag1234
ag5426
ag5430
ag5434
ag863
ag5438
ag5442
ag4505
ag4509
ag4622
ag4828
ag4832
ag4836
ag4849
ag4853
ag4857
ag4861
ag4870
ag4874
ag4878
ag4882
ag4886
ag4903
ag4912
ag4916
ag4920
ag4924
ag4928
ag5050
ag5054
ag5161
ag5165
ag5169
ag5173
ag1214
ag477
ag481
ag5413
ag5417
ag5421
ag4530
ag4534
ag4538
ag4542
ag4546
ag4576
ag4580
ag4584
ag4588
ag4592
ag4596
ag4600
ag4617
ag4720
ag4724
ag4728
ag4732
ag4736
ag4753
ag4757
ag4761
ag4765
ag4769
ag4773
ag842
ag4777
ag4781
ag4785
ag4789
ag4793
ag4806
ag4810
ag4894
ag4898
ag4936
ag4940
ag1218
ag4944
ag4966
ag4970
ag4974
ag4978
ag4982
ag4986
ag4990
ag4994
ag4998
ag5002
ag5011
ag5015
ag5024
ag5045
ag4554
ag4558
ag4567
ag4571
ag4608
ag4612
ag4634
ag4638
ag4647
ag4651
ag4655
ag4659
ag4663
ag4672
ag4676
ag4680
ag597
ag4689
ag4693
ag4706
ag4710
ag4744
ag4748
ag763
ag767
ag771
ag36
ag4801
ag4957
ag4961
ag5032
ag5036
ag5040
ag4701
ag797
asba(i__main__
Node
p5492
(dp5493
g3
Vn01871265
p5494
sg5
I00
sg6
Nsg7
(lp5495
g5494
asba(i__main__
Node
p5496
(dp5497
g3
Vn01874434
p5498
sg5
I00
sg6
(lp5499
(i__main__
Node
p5500
(dp5501
g3
Vn01883070
p5502
sg5
I00
sg6
Nsg7
(lp5503
g5502
asba(i__main__
Node
p5504
(dp5505
g3
Vn01877812
p5506
sg5
I00
sg6
Nsg7
(lp5507
g5506
asba(i__main__
Node
p5508
(dp5509
g3
Vn01882714
p5510
sg5
I00
sg6
Nsg7
(lp5511
g5510
asbasg7
(lp5512
g5502
ag5506
ag5510
asba(i__main__
Node
p5513
(dp5514
g3
Vn01871875
p5515
sg5
I00
sg6
(lp5516
(i__main__
Node
p5517
(dp5518
g3
Vn01872401
p5519
sg5
I00
sg6
Nsg7
(lp5520
g5519
asba(i__main__
Node
p5521
(dp5522
g3
Vn01873310
p5523
sg5
I00
sg6
Nsg7
(lp5524
g5523
asbasg7
(lp5525
g5519
ag5523
asbasg7
(lp5526
g5494
ag5502
ag5506
ag5510
ag5519
ag5523
ag4459
ag4463
ag5231
ag5235
ag5360
ag5364
ag5368
ag5372
ag5376
ag5380
ag5462
ag5484
ag5488
ag456
ag460
ag4476
ag859
ag4480
ag4484
ag617
ag5184
ag5188
ag5192
ag5196
ag5200
ag5204
ag5208
ag562
ag566
ag5217
ag5221
ag5248
ag5252
ag5393
ag5397
ag5401
ag5452
ag490
ag5470
ag5474
ag4497
ag4514
ag4518
ag4816
ag780
ag4820
ag4841
ag5059
ag5068
ag5072
ag621
ag5076
ag5085
ag5089
ag5093
ag5102
ag5106
ag5110
ag5114
ag5128
ag5132
ag5136
ag5140
ag5144
ag5148
ag5265
ag5269
ag5273
ag5277
ag5281
ag5285
ag5294
ag5298
ag5302
ag5306
ag5310
ag5314
ag5318
ag48
ag5332
ag5336
ag5345
ag5349
ag1226
ag1230
ag1234
ag5426
ag5430
ag5434
ag863
ag5438
ag5442
ag4505
ag4509
ag4622
ag4828
ag4832
ag4836
ag4849
ag4853
ag4857
ag4861
ag4870
ag4874
ag4878
ag4882
ag4886
ag4903
ag4912
ag4916
ag4920
ag4924
ag4928
ag5050
ag5054
ag5161
ag5165
ag5169
ag5173
ag1214
ag477
ag481
ag5413
ag5417
ag5421
ag4530
ag4534
ag4538
ag4542
ag4546
ag4576
ag4580
ag4584
ag4588
ag4592
ag4596
ag4600
ag4617
ag4720
ag4724
ag4728
ag4732
ag4736
ag4753
ag4757
ag4761
ag4765
ag4769
ag4773
ag842
ag4777
ag4781
ag4785
ag4789
ag4793
ag4806
ag4810
ag4894
ag4898
ag4936
ag4940
ag1218
ag4944
ag4966
ag4970
ag4974
ag4978
ag4982
ag4986
ag4990
ag4994
ag4998
ag5002
ag5011
ag5015
ag5024
ag5045
ag4554
ag4558
ag4567
ag4571
ag4608
ag4612
ag4634
ag4638
ag4647
ag4651
ag4655
ag4659
ag4663
ag4672
ag4676
ag4680
ag597
ag4689
ag4693
ag4706
ag4710
ag4744
ag4748
ag763
ag767
ag771
ag36
ag4801
ag4957
ag4961
ag5032
ag5036
ag5040
ag4701
ag797
asba(i__main__
Node
p5527
(dp5528
g3
Vn01661091
p5529
sg5
I00
sg6
(lp5530
(i__main__
Node
p5531
(dp5532
g3
Vn01661818
p5533
sg5
I00
sg6
(lp5534
(i__main__
Node
p5535
(dp5536
g3
Vn01696633
p5537
sg5
I00
sg6
(lp5538
(i__main__
Node
p5539
(dp5540
g3
Vn01698640
p5541
sg5
I00
sg6
Nsg7
(lp5542
g5541
asba(i__main__
Node
p5543
(dp5544
g3
Vn01697457
p5545
sg5
I00
sg6
Nsg7
(lp5546
g5545
asbasg7
(lp5547
g5541
ag5545
asba(i__main__
Node
p5548
(dp5549
g3
Vn01726692
p5550
sg5
I00
sg6
(lp5551
(i__main__
Node
p5552
(dp5553
g3
Vn01727646
p5554
sg5
I00
sg6
(lp5555
(i__main__
Node
p5556
(dp5557
g3
Vn01735189
p5558
sg5
I00
sg6
Nsg7
(lp5559
g5558
asba(i__main__
Node
p5560
(dp5561
g3
Vn01729977
p5562
sg5
I00
sg6
Nsg7
(lp5563
g5562
asba(i__main__
Node
p5564
(dp5565
g3
Vn01729322
p5566
sg5
I00
sg6
Nsg7
(lp5567
g5566
asba(i__main__
Node
p5568
(dp5569
g3
Vn01734418
p5570
sg5
I00
sg6
Nsg7
(lp5571
g5570
asba(i__main__
Node
p5572
(dp5573
g3
Vn01740131
p5574
sg5
I00
sg6
Nsg7
(lp5575
g5574
asba(i__main__
Node
p5576
(dp5577
g3
Vn01728920
p5578
sg5
I00
sg6
Nsg7
(lp5579
g5578
asbag599
a(i__main__
Node
p5580
(dp5581
g3
Vn01739381
p5582
sg5
I00
sg6
Nsg7
(lp5583
g5582
asba(i__main__
Node
p5584
(dp5585
g3
Vn01737021
p5586
sg5
I00
sg6
Nsg7
(lp5587
g5586
asbasg7
(lp5588
g5558
ag5562
ag5566
ag5570
ag5574
ag5578
ag601
ag5582
ag5586
asba(i__main__
Node
p5589
(dp5590
g3
Vn01745125
p5591
sg5
I00
sg6
(lp5592
(i__main__
Node
p5593
(dp5594
g3
Vn01748264
p5595
sg5
I00
sg6
Nsg7
(lp5596
g5595
asba(i__main__
Node
p5597
(dp5598
g3
Vn01749939
p5599
sg5
I00
sg6
Nsg7
(lp5600
g5599
asbasg7
(lp5601
g5595
ag5599
asba(i__main__
Node
p5602
(dp5603
g3
Vn01751748
p5604
sg5
I00
sg6
Nsg7
(lp5605
g5604
asba(i__main__
Node
p5606
(dp5607
g3
Vn01752165
p5608
sg5
I00
sg6
(lp5609
(i__main__
Node
p5610
(dp5611
g3
Vn01753488
p5612
sg5
I00
sg6
Nsg7
(lp5613
g5612
asba(i__main__
Node
p5614
(dp5615
g3
Vn01754876
p5616
sg5
I00
sg6
(lp5617
g865
a(i__main__
Node
p5618
(dp5619
g3
Vn01756291
p5620
sg5
I00
sg6
Nsg7
(lp5621
g5620
asbasg7
(lp5622
g867
ag5620
asbasg7
(lp5623
g5612
ag867
ag5620
asba(i__main__
Node
p5624
(dp5625
g3
Vn01741943
p5626
sg5
I00
sg6
(lp5627
(i__main__
Node
p5628
(dp5629
g3
Vn01742172
p5630
sg5
I00
sg6
Nsg7
(lp5631
g5630
asba(i__main__
Node
p5632
(dp5633
g3
Vn01744401
p5634
sg5
I00
sg6
Nsg7
(lp5635
g5634
asbasg7
(lp5636
g5630
ag5634
asbasg7
(lp5637
g5604
ag5558
ag5562
ag5566
ag5570
ag5574
ag5578
ag601
ag5582
ag5586
ag5595
ag5599
ag5612
ag5630
ag5634
ag867
ag5620
asba(i__main__
Node
p5638
(dp5639
g3
Vn01674464
p5640
sg5
I00
sg6
(lp5641
g727
a(i__main__
Node
p5642
(dp5643
g3
Vn01676755
p5644
sg5
I00
sg6
(lp5645
(i__main__
Node
p5646
(dp5647
g3
Vn01682714
p5648
sg5
I00
sg6
Nsg7
(lp5649
g5648
asba(i__main__
Node
p5650
(dp5651
g3
Vn01677366
p5652
sg5
I00
sg6
Nsg7
(lp5653
g5652
asbasg7
(lp5654
g5648
ag5652
asbag42
a(i__main__
Node
p5655
(dp5656
g3
Vn01694178
p5657
sg5
I00
sg6
Nsg7
(lp5658
g5657
asba(i__main__
Node
p5659
(dp5660
g3
Vn01675722
p5661
sg5
I00
sg6
Nsg7
(lp5662
g5661
asba(i__main__
Node
p5663
(dp5664
g3
Vn01693334
p5665
sg5
I00
sg6
Nsg7
(lp5666
g5665
asba(i__main__
Node
p5667
(dp5668
g3
Vn01695060
p5669
sg5
I00
sg6
Nsg7
(lp5670
g5669
asba(i__main__
Node
p5671
(dp5672
g3
Vn01685808
p5673
sg5
I00
sg6
Nsg7
(lp5674
g5673
asba(i__main__
Node
p5675
(dp5676
g3
Vn01692333
p5677
sg5
I00
sg6
Nsg7
(lp5678
g5677
asbasg7
(lp5679
g44
ag5657
ag5661
ag5665
ag5669
ag5673
ag5677
ag733
ag737
ag5648
ag5652
asba(i__main__
Node
p5680
(dp5681
g3
Vn01704323
p5682
sg5
I00
sg6
Nsg7
(lp5683
g5682
asbasg7
(lp5684
g5682
ag5541
ag5545
ag5604
ag44
ag5657
ag5661
ag5665
ag5669
ag5673
ag5677
ag5558
ag5562
ag5566
ag5570
ag5574
ag5578
ag601
ag5582
ag5586
ag5595
ag5599
ag5612
ag5630
ag5634
ag733
ag737
ag5648
ag5652
ag867
ag5620
asba(i__main__
Node
p5685
(dp5686
g3
Vn01662784
p5687
sg5
I00
sg6
(lp5688
(i__main__
Node
p5689
(dp5690
g3
Vn01669191
p5691
sg5
I00
sg6
Nsg7
(lp5692
g5691
asba(i__main__
Node
p5693
(dp5694
g3
Vn01667114
p5695
sg5
I00
sg6
Nsg7
(lp5696
g5695
asba(i__main__
Node
p5697
(dp5698
g3
Vn01663401
p5699
sg5
I00
sg6
(lp5700
(i__main__
Node
p5701
(dp5702
g3
Vn01665541
p5703
sg5
I00
sg6
Nsg7
(lp5704
g5703
asba(i__main__
Node
p5705
(dp5706
g3
Vn01664065
p5707
sg5
I00
sg6
Nsg7
(lp5708
g5707
asbasg7
(lp5709
g5703
ag5707
asba(i__main__
Node
p5710
(dp5711
g3
Vn01667778
p5712
sg5
I00
sg6
Nsg7
(lp5713
g5712
asbasg7
(lp5714
g5691
ag5695
ag5712
ag5703
ag5707
asbasg7
(lp5715
g5682
ag5691
ag5695
ag5712
ag5541
ag5545
ag5604
ag44
ag5657
ag5661
ag5665
ag5669
ag5673
ag5677
ag5703
ag5707
ag5558
ag5562
ag5566
ag5570
ag5574
ag5578
ag601
ag5582
ag5586
ag5595
ag5599
ag5612
ag5630
ag5634
ag733
ag737
ag5648
ag5652
ag867
ag5620
asba(i__main__
Node
p5716
(dp5717
g3
Vn02512053
p5718
sg5
I00
sg6
(lp5719
(i__main__
Node
p5720
(dp5721
g3
Vn02512938
p5722
sg5
I00
sg6
(lp5723
(i__main__
Node
p5724
(dp5725
g3
Vn02514041
p5726
sg5
I00
sg6
Nsg7
(lp5727
g5726
asba(i__main__
Node
p5728
(dp5729
g3
Vn02536864
p5730
sg5
I00
sg6
Nsg7
(lp5731
g5730
asbasg7
(lp5732
g5726
ag5730
asba(i__main__
Node
p5733
(dp5734
g3
Vn02528163
p5735
sg5
I00
sg6
(lp5736
(i__main__
Node
p5737
(dp5738
g3
Vn02638596
p5739
sg5
I00
sg6
(lp5740
(i__main__
Node
p5741
(dp5742
g3
Vn02641379
p5743
sg5
I00
sg6
Nsg7
(lp5744
g5743
asba(i__main__
Node
p5745
(dp5746
g3
Vn02640242
p5747
sg5
I00
sg6
Nsg7
(lp5748
g5747
asbasg7
(lp5749
g5743
ag5747
asba(i__main__
Node
p5750
(dp5751
g3
Vn01428580
p5752
sg5
I00
sg6
(lp5753
(i__main__
Node
p5754
(dp5755
g3
Vn02526121
p5756
sg5
I00
sg6
Nsg7
(lp5757
g5756
asba(i__main__
Node
p5758
(dp5759
g3
Vn01439121
p5760
sg5
I00
sg6
(lp5761
(i__main__
Node
p5762
(dp5763
g3
Vn01443537
p5764
sg5
I00
sg6
Nsg7
(lp5765
g5764
asba(i__main__
Node
p5766
(dp5767
g3
Vn01440764
p5768
sg5
I00
sg6
Nsg7
(lp5769
g5768
asbasg7
(lp5770
g5764
ag5768
asbag5728
asg7
(lp5771
g5756
ag5730
ag5764
ag5768
asba(i__main__
Node
p5772
(dp5773
g3
Vn02552171
p5774
sg5
I00
sg6
(lp5775
(i__main__
Node
p5776
(dp5777
g3
Vn02554730
p5778
sg5
I00
sg6
(lp5779
(i__main__
Node
p5780
(dp5781
g3
Vn02606052
p5782
sg5
I00
sg6
Nsg7
(lp5783
g5782
asba(i__main__
Node
p5784
(dp5785
g3
Vn02607072
p5786
sg5
I00
sg6
Nsg7
(lp5787
g5786
asbasg7
(lp5788
g5782
ag5786
asba(i__main__
Node
p5789
(dp5790
g3
Vn02655020
p5791
sg5
I00
sg6
Nsg7
(lp5792
g5791
asba(i__main__
Node
p5793
(dp5794
g3
Vn02643566
p5795
sg5
I00
sg6
Nsg7
(lp5796
g5795
asbasg7
(lp5797
g5791
ag5795
ag5782
ag5786
asbasg7
(lp5798
g5743
ag5747
ag5756
ag5730
ag5791
ag5795
ag5764
ag5768
ag5782
ag5786
asba(i__main__
Node
p5799
(dp5800
g3
Vn01482071
p5801
sg5
I00
sg6
(lp5802
(i__main__
Node
p5803
(dp5804
g3
Vn01495701
p5805
sg5
I00
sg6
(lp5806
(i__main__
Node
p5807
(dp5808
g3
Vn01496331
p5809
sg5
I00
sg6
Nsg7
(lp5810
g5809
asbag719
asg7
(lp5811
g5809
ag721
asba(i__main__
Node
p5812
(dp5813
g3
Vn01482330
p5814
sg5
I00
sg6
(lp5815
(i__main__
Node
p5816
(dp5817
g3
Vn01494475
p5818
sg5
I00
sg6
Nsg7
(lp5819
g5818
asba(i__main__
Node
p5820
(dp5821
g3
Vn01484850
p5822
sg5
I00
sg6
Nsg7
(lp5823
g5822
asba(i__main__
Node
p5824
(dp5825
g3
Vn01491361
p5826
sg5
I00
sg6
Nsg7
(lp5827
g5826
asbasg7
(lp5828
g5818
ag5822
ag5826
asbasg7
(lp5829
g5809
ag721
ag5818
ag5822
ag5826
asbasg7
(lp5830
g5726
ag5730
ag5743
ag5747
ag5756
ag5791
ag5795
ag5809
ag721
ag5818
ag5822
ag5826
ag5764
ag5768
ag5782
ag5786
asbasg7
(lp5831
g4284
ag431
ag4335
ag4438
ag4442
ag5494
ag4116
ag4120
ag4124
ag4146
ag4232
ag4258
ag4267
ag4271
ag4275
ag4279
ag4292
ag4296
ag4305
ag4309
ag4313
ag4317
ag4326
ag4330
ag4429
ag4433
ag5502
ag5506
ag5510
ag5519
ag5523
ag5682
ag5691
ag5695
ag5712
ag5726
ag5730
ag4137
ag4141
ag4154
ag4158
ag4177
ag4181
ag4185
ag4194
ag4198
ag4202
ag4206
ag4210
ag4227
ag4253
ag4347
ag4351
ag4355
ag4359
ag4368
ag642
ag4372
ag4386
ag524
ag4395
ag4399
ag4403
ag4407
ag4411
ag4420
ag4424
ag4459
ag4463
ag5231
ag5235
ag5360
ag5364
ag5368
ag5372
ag5376
ag5380
ag5462
ag5484
ag5488
ag5541
ag5545
ag5604
ag44
ag5657
ag5661
ag5665
ag5669
ag5673
ag5677
ag5703
ag5707
ag5743
ag5747
ag5756
ag5791
ag5795
ag5809
ag721
ag5818
ag5822
ag5826
ag1255
ag1259
ag1263
ag532
ag549
ag553
ag4218
ag4222
ag4244
ag4248
ag456
ag460
ag4476
ag859
ag4480
ag4484
ag617
ag5184
ag5188
ag5192
ag5196
ag5200
ag5204
ag5208
ag562
ag566
ag5217
ag5221
ag5248
ag5252
ag5393
ag5397
ag5401
ag5452
ag490
ag5470
ag5474
ag5558
ag5562
ag5566
ag5570
ag5574
ag5578
ag601
ag5582
ag5586
ag5595
ag5599
ag5612
ag5630
ag5634
ag733
ag737
ag5648
ag5652
ag5764
ag5768
ag5782
ag5786
ag540
ag544
ag4497
ag4514
ag4518
ag4816
ag780
ag4820
ag4841
ag5059
ag5068
ag5072
ag621
ag5076
ag5085
ag5089
ag5093
ag5102
ag5106
ag5110
ag5114
ag5128
ag5132
ag5136
ag5140
ag5144
ag5148
ag5265
ag5269
ag5273
ag5277
ag5281
ag5285
ag5294
ag5298
ag5302
ag5306
ag5310
ag5314
ag5318
ag48
ag5332
ag5336
ag5345
ag5349
ag1226
ag1230
ag1234
ag5426
ag5430
ag5434
ag863
ag5438
ag5442
ag867
ag5620
ag4505
ag4509
ag4622
ag4828
ag4832
ag4836
ag4849
ag4853
ag4857
ag4861
ag4870
ag4874
ag4878
ag4882
ag4886
ag4903
ag4912
ag4916
ag4920
ag4924
ag4928
ag5050
ag5054
ag5161
ag5165
ag5169
ag5173
ag1214
ag477
ag481
ag5413
ag5417
ag5421
ag4530
ag4534
ag4538
ag4542
ag4546
ag4576
ag4580
ag4584
ag4588
ag4592
ag4596
ag4600
ag4617
ag4720
ag4724
ag4728
ag4732
ag4736
ag4753
ag4757
ag4761
ag4765
ag4769
ag4773
ag842
ag4777
ag4781
ag4785
ag4789
ag4793
ag4806
ag4810
ag4894
ag4898
ag4936
ag4940
ag1218
ag4944
ag4966
ag4970
ag4974
ag4978
ag4982
ag4986
ag4990
ag4994
ag4998
ag5002
ag5011
ag5015
ag5024
ag5045
ag4554
ag4558
ag4567
ag4571
ag4608
ag4612
ag4634
ag4638
ag4647
ag4651
ag4655
ag4659
ag4663
ag4672
ag4676
ag4680
ag597
ag4689
ag4693
ag4706
ag4710
ag4744
ag4748
ag763
ag767
ag771
ag36
ag4801
ag4957
ag4961
ag5032
ag5036
ag5040
ag4701
ag797
asbasg7
(lp5832
g3807
ag4016
ag4038
ag4047
ag4051
ag4055
ag4064
ag4089
ag680
ag4098
ag4284
ag431
ag4335
ag4438
ag4442
ag5494
ag3773
ag3777
ag3802
ag3858
ag3974
ag4007
ag4011
ag4029
ag4033
ag4072
ag4076
ag4080
ag4084
ag4116
ag4120
ag4124
ag4146
ag4232
ag4258
ag4267
ag4271
ag4275
ag4279
ag4292
ag4296
ag4305
ag4309
ag4313
ag4317
ag4326
ag4330
ag4429
ag4433
ag5502
ag5506
ag5510
ag5519
ag5523
ag5682
ag5691
ag5695
ag5712
ag5726
ag5730
ag469
ag3785
ag3789
ag465
ag3793
ag3797
ag3836
ag3840
ag3871
ag3875
ag3879
ag3883
ag3887
ag3891
ag3913
ag3917
ag3926
ag3930
ag3939
ag3943
ag3952
ag3956
ag3965
ag3969
ag3982
ag3986
ag3990
ag3994
ag3998
ag4002
ag4137
ag4141
ag4154
ag4158
ag4177
ag4181
ag4185
ag4194
ag4198
ag4202
ag4206
ag4210
ag4227
ag4253
ag4347
ag4351
ag4355
ag4359
ag4368
ag642
ag4372
ag4386
ag524
ag4395
ag4399
ag4403
ag4407
ag4411
ag4420
ag4424
ag4459
ag4463
ag5231
ag5235
ag5360
ag5364
ag5368
ag5372
ag5376
ag5380
ag5462
ag5484
ag5488
ag5541
ag5545
ag5604
ag44
ag5657
ag5661
ag5665
ag5669
ag5673
ag5677
ag5703
ag5707
ag5743
ag5747
ag5756
ag5791
ag5795
ag5809
ag721
ag5818
ag5822
ag5826
ag3823
ag3827
ag676
ag3831
ag3848
ag3852
ag3899
ag3903
ag1255
ag1259
ag1263
ag532
ag549
ag553
ag4218
ag4222
ag4244
ag4248
ag456
ag460
ag4476
ag859
ag4480
ag4484
ag617
ag5184
ag5188
ag5192
ag5196
ag5200
ag5204
ag5208
ag562
ag566
ag5217
ag5221
ag5248
ag5252
ag5393
ag5397
ag5401
ag5452
ag490
ag5470
ag5474
ag5558
ag5562
ag5566
ag5570
ag5574
ag5578
ag601
ag5582
ag5586
ag5595
ag5599
ag5612
ag5630
ag5634
ag733
ag737
ag5648
ag5652
ag5764
ag5768
ag5782
ag5786
ag540
ag544
ag4497
ag4514
ag4518
ag4816
ag780
ag4820
ag4841
ag5059
ag5068
ag5072
ag621
ag5076
ag5085
ag5089
ag5093
ag5102
ag5106
ag5110
ag5114
ag5128
ag5132
ag5136
ag5140
ag5144
ag5148
ag5265
ag5269
ag5273
ag5277
ag5281
ag5285
ag5294
ag5298
ag5302
ag5306
ag5310
ag5314
ag5318
ag48
ag5332
ag5336
ag5345
ag5349
ag1226
ag1230
ag1234
ag5426
ag5430
ag5434
ag863
ag5438
ag5442
ag867
ag5620
ag4505
ag4509
ag4622
ag4828
ag4832
ag4836
ag4849
ag4853
ag4857
ag4861
ag4870
ag4874
ag4878
ag4882
ag4886
ag4903
ag4912
ag4916
ag4920
ag4924
ag4928
ag5050
ag5054
ag5161
ag5165
ag5169
ag5173
ag1214
ag477
ag481
ag5413
ag5417
ag5421
ag4530
ag4534
ag4538
ag4542
ag4546
ag4576
ag4580
ag4584
ag4588
ag4592
ag4596
ag4600
ag4617
ag4720
ag4724
ag4728
ag4732
ag4736
ag4753
ag4757
ag4761
ag4765
ag4769
ag4773
ag842
ag4777
ag4781
ag4785
ag4789
ag4793
ag4806
ag4810
ag4894
ag4898
ag4936
ag4940
ag1218
ag4944
ag4966
ag4970
ag4974
ag4978
ag4982
ag4986
ag4990
ag4994
ag4998
ag5002
ag5011
ag5015
ag5024
ag5045
ag4554
ag4558
ag4567
ag4571
ag4608
ag4612
ag4634
ag4638
ag4647
ag4651
ag4655
ag4659
ag4663
ag4672
ag4676
ag4680
ag597
ag4689
ag4693
ag4706
ag4710
ag4744
ag4748
ag763
ag767
ag771
ag36
ag4801
ag4957
ag4961
ag5032
ag5036
ag5040
ag4701
ag797
asba(i__main__
Node
p5833
(dp5834
g3
Vn12992868
p5835
sg5
I00
sg6
(lp5836
(i__main__
Node
p5837
(dp5838
g3
Vn13054560
p5839
sg5
I00
sg6
Nsg7
(lp5840
g5839
asba(i__main__
Node
p5841
(dp5842
g3
Vn12985857
p5843
sg5
I00
sg6
Nsg7
(lp5844
g5843
asba(i__main__
Node
p5845
(dp5846
g3
Vn13044778
p5847
sg5
I00
sg6
Nsg7
(lp5848
g5847
asba(i__main__
Node
p5849
(dp5850
g3
Vn13037406
p5851
sg5
I00
sg6
Nsg7
(lp5852
g5851
asba(i__main__
Node
p5853
(dp5854
g3
Vn13052670
p5855
sg5
I00
sg6
Nsg7
(lp5856
g5855
asba(i__main__
Node
p5857
(dp5858
g3
Vn13040303
p5859
sg5
I00
sg6
Nsg7
(lp5860
g5859
asba(i__main__
Node
p5861
(dp5862
g3
Vn12998815
p5863
sg5
I00
sg6
Nsg7
(lp5864
g5863
asbasg7
(lp5865
g5839
ag5843
ag5847
ag5851
ag5855
ag5859
ag5863
asba(i__main__
Node
p5866
(dp5867
g3
Vn00007846
p5868
sg5
I00
sg6
(lp5869
(i__main__
Node
p5870
(dp5871
g3
Vn09835506
p5872
sg5
I00
sg6
Nsg7
(lp5873
g5872
asbag5870
a(i__main__
Node
p5874
(dp5875
g3
Vn10565667
p5876
sg5
I00
sg6
Nsg7
(lp5877
g5876
asba(i__main__
Node
p5878
(dp5879
g3
Vn10148035
p5880
sg5
I00
sg6
Nsg7
(lp5881
g5880
asbasg7
(lp5882
g5872
ag5876
ag5880
asba(i__main__
Node
p5883
(dp5884
g3
Vn11669921
p5885
sg5
I00
sg6
(lp5886
(i__main__
Node
p5887
(dp5888
g3
Vn11939491
p5889
sg5
I00
sg6
Nsg7
(lp5890
g5889
asbag1245
asg7
(lp5891
g5889
ag1247
asbasg7
(lp5892
g5839
ag5843
ag5847
ag5851
ag5855
ag5859
ag5863
ag5872
ag5876
ag5880
ag5889
ag1247
ag3807
ag4016
ag4038
ag4047
ag4051
ag4055
ag4064
ag4089
ag680
ag4098
ag4284
ag431
ag4335
ag4438
ag4442
ag5494
ag3773
ag3777
ag3802
ag3858
ag3974
ag4007
ag4011
ag4029
ag4033
ag4072
ag4076
ag4080
ag4084
ag4116
ag4120
ag4124
ag4146
ag4232
ag4258
ag4267
ag4271
ag4275
ag4279
ag4292
ag4296
ag4305
ag4309
ag4313
ag4317
ag4326
ag4330
ag4429
ag4433
ag5502
ag5506
ag5510
ag5519
ag5523
ag5682
ag5691
ag5695
ag5712
ag5726
ag5730
ag469
ag3785
ag3789
ag465
ag3793
ag3797
ag3836
ag3840
ag3871
ag3875
ag3879
ag3883
ag3887
ag3891
ag3913
ag3917
ag3926
ag3930
ag3939
ag3943
ag3952
ag3956
ag3965
ag3969
ag3982
ag3986
ag3990
ag3994
ag3998
ag4002
ag4137
ag4141
ag4154
ag4158
ag4177
ag4181
ag4185
ag4194
ag4198
ag4202
ag4206
ag4210
ag4227
ag4253
ag4347
ag4351
ag4355
ag4359
ag4368
ag642
ag4372
ag4386
ag524
ag4395
ag4399
ag4403
ag4407
ag4411
ag4420
ag4424
ag4459
ag4463
ag5231
ag5235
ag5360
ag5364
ag5368
ag5372
ag5376
ag5380
ag5462
ag5484
ag5488
ag5541
ag5545
ag5604
ag44
ag5657
ag5661
ag5665
ag5669
ag5673
ag5677
ag5703
ag5707
ag5743
ag5747
ag5756
ag5791
ag5795
ag5809
ag721
ag5818
ag5822
ag5826
ag3823
ag3827
ag676
ag3831
ag3848
ag3852
ag3899
ag3903
ag1255
ag1259
ag1263
ag532
ag549
ag553
ag4218
ag4222
ag4244
ag4248
ag456
ag460
ag4476
ag859
ag4480
ag4484
ag617
ag5184
ag5188
ag5192
ag5196
ag5200
ag5204
ag5208
ag562
ag566
ag5217
ag5221
ag5248
ag5252
ag5393
ag5397
ag5401
ag5452
ag490
ag5470
ag5474
ag5558
ag5562
ag5566
ag5570
ag5574
ag5578
ag601
ag5582
ag5586
ag5595
ag5599
ag5612
ag5630
ag5634
ag733
ag737
ag5648
ag5652
ag5764
ag5768
ag5782
ag5786
ag540
ag544
ag4497
ag4514
ag4518
ag4816
ag780
ag4820
ag4841
ag5059
ag5068
ag5072
ag621
ag5076
ag5085
ag5089
ag5093
ag5102
ag5106
ag5110
ag5114
ag5128
ag5132
ag5136
ag5140
ag5144
ag5148
ag5265
ag5269
ag5273
ag5277
ag5281
ag5285
ag5294
ag5298
ag5302
ag5306
ag5310
ag5314
ag5318
ag48
ag5332
ag5336
ag5345
ag5349
ag1226
ag1230
ag1234
ag5426
ag5430
ag5434
ag863
ag5438
ag5442
ag867
ag5620
ag4505
ag4509
ag4622
ag4828
ag4832
ag4836
ag4849
ag4853
ag4857
ag4861
ag4870
ag4874
ag4878
ag4882
ag4886
ag4903
ag4912
ag4916
ag4920
ag4924
ag4928
ag5050
ag5054
ag5161
ag5165
ag5169
ag5173
ag1214
ag477
ag481
ag5413
ag5417
ag5421
ag4530
ag4534
ag4538
ag4542
ag4546
ag4576
ag4580
ag4584
ag4588
ag4592
ag4596
ag4600
ag4617
ag4720
ag4724
ag4728
ag4732
ag4736
ag4753
ag4757
ag4761
ag4765
ag4769
ag4773
ag842
ag4777
ag4781
ag4785
ag4789
ag4793
ag4806
ag4810
ag4894
ag4898
ag4936
ag4940
ag1218
ag4944
ag4966
ag4970
ag4974
ag4978
ag4982
ag4986
ag4990
ag4994
ag4998
ag5002
ag5011
ag5015
ag5024
ag5045
ag4554
ag4558
ag4567
ag4571
ag4608
ag4612
ag4634
ag4638
ag4647
ag4651
ag4655
ag4659
ag4663
ag4672
ag4676
ag4680
ag597
ag4689
ag4693
ag4706
ag4710
ag4744
ag4748
ag763
ag767
ag771
ag36
ag4801
ag4957
ag4961
ag5032
ag5036
ag5040
ag4701
ag797
asbasg7
(lp5893
g755
ag3705
ag3714
ag1292
ag1301
ag1543
ag1547
ag1556
ag725
ag1591
ag1595
ag3390
ag3394
ag2553
ag3403
ag3412
ag2595
ag3421
ag3515
ag3579
ag3636
ag3640
ag40
ag3691
ag826
ag3695
ag2092
ag3722
ag3726
ag3730
ag5839
ag5843
ag5847
ag5851
ag5855
ag5859
ag5863
ag5872
ag5876
ag5880
ag5889
ag1247
ag1309
ag1313
ag1119
ag1123
ag1127
ag1131
ag1322
ag1326
ag1335
ag1356
ag1243
ag1503
ag1538
ag1569
ag1573
ag1577
ag1675
ag1701
ag1718
ag1417
ag2060
ag2064
ag2068
ag2072
ag2076
ag2080
ag2084
ag2088
ag2260
ag2459
ag2748
ag2761
ag2829
ag2833
ag2837
ag1200
ag2841
ag2845
ag2849
ag1272
ag2866
ag3051
ag3055
ag2232
ag3278
ag638
ag3282
ag3286
ag3290
ag3337
ag3359
ag2930
ag3368
ag3372
ag3376
ag494
ag3429
ag3433
ag3437
ag3446
ag3450
ag3467
ag3471
ag3488
ag3523
ag3574
ag2038
ag3601
ag3605
ag3609
ag3631
ag3648
ag3652
ag1210
ag423
ag1696
ag288
ag305
ag309
ag313
ag317
ag321
ag325
ag329
ag3738
ag3742
ag3746
ag891
ag895
ag904
ag973
ag1024
ag1028
ag1032
ag1036
ag788
ag792
ag742
ag1106
ag1110
ag1114
ag713
ag750
ag1343
ag1347
ag1351
ag1382
ag1404
ag1413
ag1426
ag1430
ag1439
ag1443
ag1447
ag1451
ag1460
ag1464
ag1468
ag1477
ag1481
ag1490
ag1494
ag1498
ag1511
ag1515
ag1529
ag1533
ag1585
ag1612
ag1616
ag1620
ag1624
ag1628
ag1637
ag1641
ag1650
ag1654
ag1658
ag1662
ag1666
ag1670
ag1709
ag1713
ag1726
ag1730
ag1739
ag1743
ag1768
ag1785
ag1789
ag1793
ag1814
ag1818
ag1835
ag1879
ag2030
ag2034
ag609
ag2255
ag2273
ag2277
ag2286
ag2290
ag515
ag519
ag2299
ag2303
ag2428
ag419
ag2450
ag2454
ag2467
ag2532
ag2536
ag1178
ag2591
ag776
ag2756
ag2794
ag2798
ag592
ag2807
ag875
ag809
ag2811
ag2820
ag2824
ag2857
ag2861
ag2879
ag2883
ag2887
ag2891
ag2895
ag2909
ag2980
ag3002
ag3006
ag2943
ag2947
ag2951
ag3042
ag3046
ag1395
ag1399
ag3085
ag11
ag3136
ag3140
ag3144
ag3148
ag3152
ag3156
ag3170
ag3174
ag3183
ag3187
ag3191
ag3251
ag3255
ag3298
ag3302
ag3306
ag3328
ag3332
ag3350
ag3354
ag270
ag3384
ag830
ag3458
ag3462
ag3479
ag3483
ag3496
ag3500
ag684
ag3509
ag3569
ag834
ag3591
ag3622
ag3626
ag3660
ag3664
ag3668
ag3672
ag3681
ag3685
ag1687
ag1691
ag296
ag300
ag3807
ag4016
ag4038
ag4047
ag4051
ag4055
ag4064
ag4089
ag680
ag4098
ag4284
ag431
ag4335
ag4438
ag4442
ag5494
ag486
ag1182
ag929
ag938
ag942
ag696
ag951
ag960
ag964
ag968
ag415
ag981
ag985
ag994
ag998
ag1002
ag1011
ag1015
ag1019
ag1049
ag1053
ag1057
ag1066
ag1070
ag1074
ag1078
ag1087
ag1091
ag1373
ag1377
ag1751
ag1755
ag1759
ag1763
ag692
ag1776
ag1780
ag1801
ag1805
ag1809
ag1826
ag1830
ag1848
ag1852
ag1861
ag1865
ag1874
ag717
ag32
ag838
ag2004
ag2025
ag2046
ag2050
ag2054
ag663
ag667
ag671
ag2012
ag2020
ag2122
ag2246
ag2250
ag2316
ag2320
ag2350
ag2354
ag2363
ag2367
ag2376
ag2380
ag2384
ag2393
ag2423
ag2436
ag2440
ag2475
ag2479
ag850
ag854
ag605
ag2514
ag2523
ag2527
ag629
ag633
ag2549
ag2578
ag2582
ag2586
ag502
ag2608
ag2630
ag2634
ag2638
ag2642
ag2646
ag2650
ag1206
ag2681
ag2707
ag2742
ag2773
ag2777
ag2781
ag2785
ag435
ag2789
ag579
ag583
ag587
ag2917
ag2921
ag2925
ag2955
ag2959
ag2963
ag2967
ag613
ag2971
ag2975
ag2988
ag2992
ag1957
ag3024
ag3028
ag3032
ag650
ag654
ag3072
ag3076
ag3080
ag817
ag821
ag3114
ag3118
ag3122
ag3131
ag3199
ag3203
ag3217
ag3234
ag3238
ag3242
ag3246
ag3272
ag3319
ag3323
ag3540
ag3544
ag3548
ag3552
ag3556
ag3560
ag3564
ag1239
ag3773
ag3777
ag3802
ag3858
ag3974
ag4007
ag4011
ag4029
ag4033
ag4072
ag4076
ag4080
ag4084
ag4116
ag4120
ag4124
ag4146
ag4232
ag4258
ag4267
ag4271
ag4275
ag4279
ag4292
ag4296
ag4305
ag4309
ag4313
ag4317
ag4326
ag4330
ag4429
ag4433
ag5502
ag5506
ag5510
ag5519
ag5523
ag5682
ag5691
ag5695
ag5712
ag5726
ag5730
ag1148
ag1165
ag1169
ag1173
ag1190
ag871
ag1194
ag916
ag920
ag924
ag443
ag447
ag1891
ag1895
ag1904
ag1953
ag1961
ag1999
ag2016
ag2213
ag2217
ag2337
ag2341
ag2345
ag2401
ag2487
ag2561
ag2565
ag2569
ag2573
ag2616
ag2620
ag4
ag2663
ag2672
ag2676
ag2694
ag2698
ag2702
ag506
ag2737
ag56
ag60
ag3097
ag3101
ag3105
ag3109
ag3225
ag3229
ag688
ag3267
ag469
ag3785
ag3789
ag465
ag3793
ag3797
ag3836
ag3840
ag3871
ag3875
ag3879
ag3883
ag3887
ag3891
ag3913
ag3917
ag3926
ag3930
ag3939
ag3943
ag3952
ag3956
ag3965
ag3969
ag3982
ag3986
ag3990
ag3994
ag3998
ag4002
ag4137
ag4141
ag4154
ag4158
ag4177
ag4181
ag4185
ag4194
ag4198
ag4202
ag4206
ag4210
ag4227
ag4253
ag4347
ag4351
ag4355
ag4359
ag4368
ag642
ag4372
ag4386
ag524
ag4395
ag4399
ag4403
ag4407
ag4411
ag4420
ag4424
ag4459
ag4463
ag5231
ag5235
ag5360
ag5364
ag5368
ag5372
ag5376
ag5380
ag5462
ag5484
ag5488
ag5541
ag5545
ag5604
ag44
ag5657
ag5661
ag5665
ag5669
ag5673
ag5677
ag5703
ag5707
ag5743
ag5747
ag5756
ag5791
ag5795
ag5809
ag721
ag5818
ag5822
ag5826
ag1156
ag1160
ag1912
ag1916
ag1920
ag1924
ag1928
ag1932
ag1936
ag1940
ag1944
ag1948
ag1969
ag1276
ag1973
ag1977
ag1981
ag2126
ag2135
ag2139
ag2153
ag2157
ag2174
ag2178
ag2196
ag2205
ag2222
ag801
ag2226
ag2332
ag805
ag1268
ag704
ag708
ag2409
ag2413
ag2417
ag2495
ag2499
ag2503
ag2732
ag3823
ag3827
ag676
ag3831
ag3848
ag3852
ag3899
ag3903
ag1255
ag1259
ag1263
ag532
ag549
ag553
ag4218
ag4222
ag4244
ag4248
ag456
ag460
ag4476
ag859
ag4480
ag4484
ag617
ag5184
ag5188
ag5192
ag5196
ag5200
ag5204
ag5208
ag562
ag566
ag5217
ag5221
ag5248
ag5252
ag5393
ag5397
ag5401
ag5452
ag490
ag5470
ag5474
ag5558
ag5562
ag5566
ag5570
ag5574
ag5578
ag601
ag5582
ag5586
ag5595
ag5599
ag5612
ag5630
ag5634
ag733
ag737
ag5648
ag5652
ag5764
ag5768
ag5782
ag5786
ag1989
ag1993
ag2165
ag2169
ag2191
ag427
ag2723
ag2727
ag540
ag544
ag4497
ag4514
ag4518
ag4816
ag780
ag4820
ag4841
ag5059
ag5068
ag5072
ag621
ag5076
ag5085
ag5089
ag5093
ag5102
ag5106
ag5110
ag5114
ag5128
ag5132
ag5136
ag5140
ag5144
ag5148
ag5265
ag5269
ag5273
ag5277
ag5281
ag5285
ag5294
ag5298
ag5302
ag5306
ag5310
ag5314
ag5318
ag48
ag5332
ag5336
ag5345
ag5349
ag1226
ag1230
ag1234
ag5426
ag5430
ag5434
ag863
ag5438
ag5442
ag867
ag5620
ag4505
ag4509
ag4622
ag4828
ag4832
ag4836
ag4849
ag4853
ag4857
ag4861
ag4870
ag4874
ag4878
ag4882
ag4886
ag4903
ag4912
ag4916
ag4920
ag4924
ag4928
ag5050
ag5054
ag5161
ag5165
ag5169
ag5173
ag1214
ag477
ag481
ag5413
ag5417
ag5421
ag4530
ag4534
ag4538
ag4542
ag4546
ag4576
ag4580
ag4584
ag4588
ag4592
ag4596
ag4600
ag4617
ag4720
ag4724
ag4728
ag4732
ag4736
ag4753
ag4757
ag4761
ag4765
ag4769
ag4773
ag842
ag4777
ag4781
ag4785
ag4789
ag4793
ag4806
ag4810
ag4894
ag4898
ag4936
ag4940
ag1218
ag4944
ag4966
ag4970
ag4974
ag4978
ag4982
ag4986
ag4990
ag4994
ag4998
ag5002
ag5011
ag5015
ag5024
ag5045
ag4554
ag4558
ag4567
ag4571
ag4608
ag4612
ag4634
ag4638
ag4647
ag4651
ag4655
ag4659
ag4663
ag4672
ag4676
ag4680
ag597
ag4689
ag4693
ag4706
ag4710
ag4744
ag4748
ag763
ag767
ag771
ag36
ag4801
ag4957
ag4961
ag5032
ag5036
ag5040
ag4701
ag797
asbag5628
ag5034
ag3326
ag5250
ag4661
ag5632
ag5874
ag2310
ag5334
ag5134
ag2969
ag4277
ag5271
ag4602
ag1550
ag1664
ag2365
ag5407
ag1770
ag5022
ag5383
ag2636
ag5799
ag5100
ag517
ag2361
ag4791
ag1955
ag2814
ag3589
ag1863
ag1433
ag2473
ag3513
ag4751
ag1631
ag5861
ag87
ag2028
ag4746
ag1906
ag3893
ag3732
ag3817
ag5009
ag1513
ag3000
ag4901
ag932
ag1299
a(i__main__
Node
p5894
(dp5895
g3
Vn09428293
p5896
sg5
I00
sg6
Nsg7
(lp5897
g5896
asbag1749
ag3911
ag2881
ag1176
ag162
ag4951
ag815
ag3284
ag2489
ag1100
ag4565
ag3013
ag245
ag1889
ag3846
ag2095
ag3040
ag1311
ag3907
ag3129
ag3771
ag4972
ag3494
ag4814
ag1479
ag4804
ag2477
ag458
ag5450
ag2086
ag2941
ag1466
ag3435
ag3201
ag3223
ag3244
ag5655
ag1979
ag530
ag1232
ag5159
ag1824
ag2314
ag5415
ag3620
ag3227
ag4376
ag5572
ag1257
ag4767
ag2275
ag3344
ag1757
a(i__main__
Node
p5898
(dp5899
g3
Vn09472597
p5900
sg5
I00
sg6
Nsg7
(lp5901
g5900
asbag3550
ag4234
ag2448
ag4499
ag5724
ag914
ag1635
ag1868
ag5602
ag3270
ag2172
ag5845
ag4036
ag4328
ag4980
ag4556
ag2403
ag992
ag2796
ag922
ag4582
ag2567
ag3554
ag5167
ag54
ag4649
ag2589
ag4183
ag3507
ag1022
ag3920
ag1567
ag1349
ag5182
ag2352
ag2040
ag3448
ag5624
ag769
ag4918
ag3103
ag4023
ag3078
ag5428
ag1593
ag4876
ag1610
ag2735
ag1753
ag4461
ag454
ag1656
ag910
ag79
ag1458
ag4691
ag5766
ag5130
ag373
ag21
ag2151
ag2104
ag1724
ag560
a(i__main__
Node
p5902
(dp5903
g3
Vn09409512
p5904
sg5
I00
sg6
(lp5905
g3712
a(i__main__
Node
p5906
(dp5907
g3
Vn09256479
p5908
sg5
I00
sg6
Nsg7
(lp5909
g5908
asbasg7
(lp5910
g3714
ag5908
asbag4722
a(i__main__
Node
p5911
(dp5912
g3
Vn09193705
p5913
sg5
I00
sg6
Nsg7
(lp5914
g5913
asbag228
ag3276
ag1509
ag3873
ag336
ag590
ag1389
ag5478
ag966
ag3112
ag386
ag1121
ag4787
ag2082
ag2543
ag2915
ag4590
ag3928
ag3629
ag2465
ag2199
ag4520
ag1602
ag4942
ag4834
ag1626
ag2721
ag3542
a(i__main__
Node
p5915
(dp5916
g3
Vn00002137
p5917
sg5
I00
sg6
(lp5918
g17
ag67
a(i__main__
Node
p5919
(dp5920
g3
Vn09229709
p5921
sg5
I00
sg6
Nsg7
(lp5922
g5921
asbasg7
(lp5923
g5921
ag23
ag27
ag104
ag99
ag94
ag85
ag89
asbag1881
ag3534
ag5142
ag2709
ag4333
ag1505
ag1501
ag1575
ag2945
ag3120
ag4926
ag3728
ag5048
ag2343
ag1068
ag2847
ag5710
ag5246
ag2399
ag3296
ag5580
ag4683
ag1475
ag5472
ag4418
ag2534
ag4135
ag940
ag1371
ag3889
ag4859
ag4261
ag5163
ag294
ag5178
ag5378
ag3809
ag1850
ag547
ag2070
ag1877
ag307
ag1316
ag2074
ag4440
ag4818
ag5343
ag4641
ag1699
ag3410
ag3185
ag5584
ag5374
ag1261
ag2530
ag1761
ag216
ag1677
ag2407
ag3546
ag4341
ag3698
ag3984
ag5841
ag3172
ag5300
ag154
ag648
ag4775
ag1720
ag4290
ag4131
a(i__main__
Node
p5924
(dp5925
g3
Vn09287968
p5926
sg5
I00
sg6
(lp5927
g13
a(i__main__
Node
p5928
(dp5929
g3
Vn09366317
p5930
sg5
I00
sg6
(lp5931
(i__main__
Node
p5932
(dp5933
g3
Vn09359803
p5934
sg5
I00
sg6
(lp5935
g5911
ag5898
asg7
(lp5936
g5913
ag5900
asba(i__main__
Node
p5937
(dp5938
g3
Vn09399592
p5939
sg5
I00
sg6
Nsg7
(lp5940
g5939
asbag5902
asg7
(lp5941
g5939
ag5913
ag5900
ag3714
ag5908
asba(i__main__
Node
p5942
(dp5943
g3
Vn09433442
p5944
sg5
I00
sg6
(lp5945
(i__main__
Node
p5946
(dp5947
g3
Vn09332890
p5948
sg5
I00
sg6
Nsg7
(lp5949
g5948
asbag5894
asg7
(lp5950
g5948
ag5896
asba(i__main__
Node
p5951
(dp5952
g3
Vn09468604
p5953
sg5
I00
sg6
Nsg7
(lp5954
g5953
asba(i__main__
Node
p5955
(dp5956
g3
Vn09288635
p5957
sg5
I00
sg6
Nsg7
(lp5958
g5957
asbasg7
(lp5959
g15
ag5953
ag5957
ag5939
ag5948
ag5896
ag5913
ag5900
ag3714
ag5908
asbag936
ag4337
ag5091
ag3490
ag5812
ag5043
ag748
ag3362
ag3388
ag1454
ag2469
ag2288
ag1716
ag131
ag2159
ag211
ag1415
ag4175
ag5720
ag4610
ag1367
ag1991
ag2670
ag5521
ag1828
ag2235
ag1163
ag2293
ag5112
ag2326
ag2835
ag1668
ag4742
ag1055
ag1987
ag1531
ag5754
ag2953
ag67
ag5255
ag1703
ag5776
ag2099
ag5057
ag3693
ag1523
ag4122
ag1043
ag1689
ag1407
ag4062
ag5705
ag3177
ag4380
ag1803
ag1614
ag4674
ag5279
ag2244
ag3030
ag5531
ag4884
ag3865
ag5928
ag1728
ag2411
ag3877
ag5552
ag4078
ag2501
ag166
ag4714
ag403
ag500
ag1138
ag4512
ag3406
ag2018
ag3526
ag3959
ag3189
ag311
ag4303
ag1842
ag1307
ag5411
ag4922
ag1171
ag1673
ag5399
ag1711
ag3062
ag3058
ag4238
ag3538
ag3009
ag4106
ag1902
ag2907
ag4102
ag5436
ag2928
ag4574
ag2230
ag5803
ag5951
ag4031
a(i__main__
Node
p5960
(dp5961
g3
Vn00001930
p5962
sg5
I00
sg6
(lp5963
(i__main__
Node
p5964
(dp5965
g3
Vn00007347
p5966
sg5
I00
sg6
(lp5967
g5866
ag264
asg7
(lp5968
g5872
ag5876
ag5880
ag270
ag94
ag85
ag89
asbag63
a(i__main__
Node
p5969
(dp5970
g3
Vn00002684
p5971
sg5
I00
sg6
(lp5972
g5924
ag1278
asg7
(lp5973
g15
ag5953
ag5957
ag5939
ag5948
ag5896
ag755
ag3705
ag3714
ag5913
ag5900
ag5908
ag1292
ag1301
ag1543
ag1547
ag1556
ag725
ag1591
ag1595
ag3390
ag3394
ag2553
ag3403
ag3412
ag2595
ag3421
ag3515
ag3579
ag3636
ag3640
ag40
ag3691
ag826
ag3695
ag2092
ag3722
ag3726
ag3730
ag5839
ag5843
ag5847
ag5851
ag5855
ag5859
ag5863
ag5872
ag5876
ag5880
ag5889
ag1247
ag1309
ag1313
ag1119
ag1123
ag1127
ag1131
ag1322
ag1326
ag1335
ag1356
ag1243
ag1503
ag1538
ag1569
ag1573
ag1577
ag1675
ag1701
ag1718
ag1417
ag2060
ag2064
ag2068
ag2072
ag2076
ag2080
ag2084
ag2088
ag2260
ag2459
ag2748
ag2761
ag2829
ag2833
ag2837
ag1200
ag2841
ag2845
ag2849
ag1272
ag2866
ag3051
ag3055
ag2232
ag3278
ag638
ag3282
ag3286
ag3290
ag3337
ag3359
ag2930
ag3368
ag3372
ag3376
ag494
ag3429
ag3433
ag3437
ag3446
ag3450
ag3467
ag3471
ag3488
ag3523
ag3574
ag2038
ag3601
ag3605
ag3609
ag3631
ag3648
ag3652
ag1210
ag423
ag1696
ag288
ag305
ag309
ag313
ag317
ag321
ag325
ag329
ag3738
ag3742
ag3746
ag891
ag895
ag904
ag973
ag1024
ag1028
ag1032
ag1036
ag788
ag792
ag742
ag1106
ag1110
ag1114
ag713
ag750
ag1343
ag1347
ag1351
ag1382
ag1404
ag1413
ag1426
ag1430
ag1439
ag1443
ag1447
ag1451
ag1460
ag1464
ag1468
ag1477
ag1481
ag1490
ag1494
ag1498
ag1511
ag1515
ag1529
ag1533
ag1585
ag1612
ag1616
ag1620
ag1624
ag1628
ag1637
ag1641
ag1650
ag1654
ag1658
ag1662
ag1666
ag1670
ag1709
ag1713
ag1726
ag1730
ag1739
ag1743
ag1768
ag1785
ag1789
ag1793
ag1814
ag1818
ag1835
ag1879
ag2030
ag2034
ag609
ag2255
ag2273
ag2277
ag2286
ag2290
ag515
ag519
ag2299
ag2303
ag2428
ag419
ag2450
ag2454
ag2467
ag2532
ag2536
ag1178
ag2591
ag776
ag2756
ag2794
ag2798
ag592
ag2807
ag875
ag809
ag2811
ag2820
ag2824
ag2857
ag2861
ag2879
ag2883
ag2887
ag2891
ag2895
ag2909
ag2980
ag3002
ag3006
ag2943
ag2947
ag2951
ag3042
ag3046
ag1395
ag1399
ag3085
ag11
ag3136
ag3140
ag3144
ag3148
ag3152
ag3156
ag3170
ag3174
ag3183
ag3187
ag3191
ag3251
ag3255
ag3298
ag3302
ag3306
ag3328
ag3332
ag3350
ag3354
ag270
ag3384
ag830
ag3458
ag3462
ag3479
ag3483
ag3496
ag3500
ag684
ag3509
ag3569
ag834
ag3591
ag3622
ag3626
ag3660
ag3664
ag3668
ag3672
ag3681
ag3685
ag1687
ag1691
ag296
ag300
ag3807
ag4016
ag4038
ag4047
ag4051
ag4055
ag4064
ag4089
ag680
ag4098
ag4284
ag431
ag4335
ag4438
ag4442
ag5494
ag486
ag1182
ag929
ag938
ag942
ag696
ag951
ag960
ag964
ag968
ag415
ag981
ag985
ag994
ag998
ag1002
ag1011
ag1015
ag1019
ag1049
ag1053
ag1057
ag1066
ag1070
ag1074
ag1078
ag1087
ag1091
ag1373
ag1377
ag1751
ag1755
ag1759
ag1763
ag692
ag1776
ag1780
ag1801
ag1805
ag1809
ag1826
ag1830
ag1848
ag1852
ag1861
ag1865
ag1874
ag717
ag32
ag838
ag2004
ag2025
ag2046
ag2050
ag2054
ag663
ag667
ag671
ag2012
ag2020
ag2122
ag2246
ag2250
ag2316
ag2320
ag2350
ag2354
ag2363
ag2367
ag2376
ag2380
ag2384
ag2393
ag2423
ag2436
ag2440
ag2475
ag2479
ag850
ag854
ag605
ag2514
ag2523
ag2527
ag629
ag633
ag2549
ag2578
ag2582
ag2586
ag502
ag2608
ag2630
ag2634
ag2638
ag2642
ag2646
ag2650
ag1206
ag2681
ag2707
ag2742
ag2773
ag2777
ag2781
ag2785
ag435
ag2789
ag579
ag583
ag587
ag2917
ag2921
ag2925
ag2955
ag2959
ag2963
ag2967
ag613
ag2971
ag2975
ag2988
ag2992
ag1957
ag3024
ag3028
ag3032
ag650
ag654
ag3072
ag3076
ag3080
ag817
ag821
ag3114
ag3118
ag3122
ag3131
ag3199
ag3203
ag3217
ag3234
ag3238
ag3242
ag3246
ag3272
ag3319
ag3323
ag3540
ag3544
ag3548
ag3552
ag3556
ag3560
ag3564
ag1239
ag3773
ag3777
ag3802
ag3858
ag3974
ag4007
ag4011
ag4029
ag4033
ag4072
ag4076
ag4080
ag4084
ag4116
ag4120
ag4124
ag4146
ag4232
ag4258
ag4267
ag4271
ag4275
ag4279
ag4292
ag4296
ag4305
ag4309
ag4313
ag4317
ag4326
ag4330
ag4429
ag4433
ag5502
ag5506
ag5510
ag5519
ag5523
ag5682
ag5691
ag5695
ag5712
ag5726
ag5730
ag1148
ag1165
ag1169
ag1173
ag1190
ag871
ag1194
ag916
ag920
ag924
ag443
ag447
ag1891
ag1895
ag1904
ag1953
ag1961
ag1999
ag2016
ag2213
ag2217
ag2337
ag2341
ag2345
ag2401
ag2487
ag2561
ag2565
ag2569
ag2573
ag2616
ag2620
ag4
ag2663
ag2672
ag2676
ag2694
ag2698
ag2702
ag506
ag2737
ag56
ag60
ag3097
ag3101
ag3105
ag3109
ag3225
ag3229
ag688
ag3267
ag469
ag3785
ag3789
ag465
ag3793
ag3797
ag3836
ag3840
ag3871
ag3875
ag3879
ag3883
ag3887
ag3891
ag3913
ag3917
ag3926
ag3930
ag3939
ag3943
ag3952
ag3956
ag3965
ag3969
ag3982
ag3986
ag3990
ag3994
ag3998
ag4002
ag4137
ag4141
ag4154
ag4158
ag4177
ag4181
ag4185
ag4194
ag4198
ag4202
ag4206
ag4210
ag4227
ag4253
ag4347
ag4351
ag4355
ag4359
ag4368
ag642
ag4372
ag4386
ag524
ag4395
ag4399
ag4403
ag4407
ag4411
ag4420
ag4424
ag4459
ag4463
ag5231
ag5235
ag5360
ag5364
ag5368
ag5372
ag5376
ag5380
ag5462
ag5484
ag5488
ag5541
ag5545
ag5604
ag44
ag5657
ag5661
ag5665
ag5669
ag5673
ag5677
ag5703
ag5707
ag5743
ag5747
ag5756
ag5791
ag5795
ag5809
ag721
ag5818
ag5822
ag5826
ag1156
ag1160
ag1912
ag1916
ag1920
ag1924
ag1928
ag1932
ag1936
ag1940
ag1944
ag1948
ag1969
ag1276
ag1973
ag1977
ag1981
ag2126
ag2135
ag2139
ag2153
ag2157
ag2174
ag2178
ag2196
ag2205
ag2222
ag801
ag2226
ag2332
ag805
ag1268
ag704
ag708
ag2409
ag2413
ag2417
ag2495
ag2499
ag2503
ag2732
ag3823
ag3827
ag676
ag3831
ag3848
ag3852
ag3899
ag3903
ag1255
ag1259
ag1263
ag532
ag549
ag553
ag4218
ag4222
ag4244
ag4248
ag456
ag460
ag4476
ag859
ag4480
ag4484
ag617
ag5184
ag5188
ag5192
ag5196
ag5200
ag5204
ag5208
ag562
ag566
ag5217
ag5221
ag5248
ag5252
ag5393
ag5397
ag5401
ag5452
ag490
ag5470
ag5474
ag5558
ag5562
ag5566
ag5570
ag5574
ag5578
ag601
ag5582
ag5586
ag5595
ag5599
ag5612
ag5630
ag5634
ag733
ag737
ag5648
ag5652
ag5764
ag5768
ag5782
ag5786
ag1989
ag1993
ag2165
ag2169
ag2191
ag427
ag2723
ag2727
ag540
ag544
ag4497
ag4514
ag4518
ag4816
ag780
ag4820
ag4841
ag5059
ag5068
ag5072
ag621
ag5076
ag5085
ag5089
ag5093
ag5102
ag5106
ag5110
ag5114
ag5128
ag5132
ag5136
ag5140
ag5144
ag5148
ag5265
ag5269
ag5273
ag5277
ag5281
ag5285
ag5294
ag5298
ag5302
ag5306
ag5310
ag5314
ag5318
ag48
ag5332
ag5336
ag5345
ag5349
ag1226
ag1230
ag1234
ag5426
ag5430
ag5434
ag863
ag5438
ag5442
ag867
ag5620
ag4505
ag4509
ag4622
ag4828
ag4832
ag4836
ag4849
ag4853
ag4857
ag4861
ag4870
ag4874
ag4878
ag4882
ag4886
ag4903
ag4912
ag4916
ag4920
ag4924
ag4928
ag5050
ag5054
ag5161
ag5165
ag5169
ag5173
ag1214
ag477
ag481
ag5413
ag5417
ag5421
ag4530
ag4534
ag4538
ag4542
ag4546
ag4576
ag4580
ag4584
ag4588
ag4592
ag4596
ag4600
ag4617
ag4720
ag4724
ag4728
ag4732
ag4736
ag4753
ag4757
ag4761
ag4765
ag4769
ag4773
ag842
ag4777
ag4781
ag4785
ag4789
ag4793
ag4806
ag4810
ag4894
ag4898
ag4936
ag4940
ag1218
ag4944
ag4966
ag4970
ag4974
ag4978
ag4982
ag4986
ag4990
ag4994
ag4998
ag5002
ag5011
ag5015
ag5024
ag5045
ag4554
ag4558
ag4567
ag4571
ag4608
ag4612
ag4634
ag4638
ag4647
ag4651
ag4655
ag4659
ag4663
ag4672
ag4676
ag4680
ag597
ag4689
ag4693
ag4706
ag4710
ag4744
ag4748
ag763
ag767
ag771
ag36
ag4801
ag4957
ag4961
ag5032
ag5036
ag5040
ag4701
ag797
asbasg7
(lp5974
g5872
ag5876
ag5880
ag270
ag104
ag15
ag5953
ag5957
ag94
ag99
ag257
ag261
ag142
ag146
ag5939
ag5948
ag5896
ag755
ag3705
ag3714
ag85
ag89
ag156
ag288
ag305
ag309
ag313
ag317
ag321
ag325
ag329
ag338
ag342
ag363
ag367
ag133
ag137
ag5913
ag5900
ag5908
ag1292
ag1301
ag1543
ag1547
ag1556
ag725
ag1591
ag1595
ag3390
ag3394
ag2553
ag3403
ag3412
ag2595
ag3421
ag3515
ag3579
ag3636
ag3640
ag40
ag3691
ag826
ag3695
ag2092
ag3722
ag3726
ag3730
ag5839
ag5843
ag5847
ag5851
ag5855
ag5859
ag5863
ag5889
ag1247
ag151
ag177
ag213
ag222
ag226
ag230
ag247
ag251
ag296
ag300
ag350
ag354
ag358
ag375
ag1309
ag1313
ag1119
ag1123
ag1127
ag1131
ag1322
ag1326
ag1335
ag1356
ag1243
ag1503
ag1538
ag1569
ag1573
ag1577
ag1675
ag1701
ag1718
ag1417
ag2060
ag2064
ag2068
ag2072
ag2076
ag2080
ag2084
ag2088
ag2260
ag2459
ag2748
ag2761
ag2829
ag2833
ag2837
ag1200
ag2841
ag2845
ag2849
ag1272
ag2866
ag3051
ag3055
ag2232
ag3278
ag638
ag3282
ag3286
ag3290
ag3337
ag3359
ag2930
ag3368
ag3372
ag3376
ag494
ag3429
ag3433
ag3437
ag3446
ag3450
ag3467
ag3471
ag3488
ag3523
ag3574
ag2038
ag3601
ag3605
ag3609
ag3631
ag3648
ag3652
ag1210
ag423
ag1696
ag3738
ag3742
ag3746
ag168
ag172
ag208
ag238
ag242
ag388
ag392
ag401
ag405
ag891
ag895
ag904
ag973
ag1024
ag1028
ag1032
ag1036
ag788
ag792
ag742
ag1106
ag1110
ag1114
ag713
ag750
ag1343
ag1347
ag1351
ag1382
ag1404
ag1413
ag1426
ag1430
ag1439
ag1443
ag1447
ag1451
ag1460
ag1464
ag1468
ag1477
ag1481
ag1490
ag1494
ag1498
ag1511
ag1515
ag1529
ag1533
ag1585
ag1612
ag1616
ag1620
ag1624
ag1628
ag1637
ag1641
ag1650
ag1654
ag1658
ag1662
ag1666
ag1670
ag1709
ag1713
ag1726
ag1730
ag1739
ag1743
ag1768
ag1785
ag1789
ag1793
ag1814
ag1818
ag1835
ag1879
ag2030
ag2034
ag609
ag2255
ag2273
ag2277
ag2286
ag2290
ag515
ag519
ag2299
ag2303
ag2428
ag419
ag2450
ag2454
ag2467
ag2532
ag2536
ag1178
ag2591
ag776
ag2756
ag2794
ag2798
ag592
ag2807
ag875
ag809
ag2811
ag2820
ag2824
ag2857
ag2861
ag2879
ag2883
ag2887
ag2891
ag2895
ag2909
ag2980
ag3002
ag3006
ag2943
ag2947
ag2951
ag3042
ag3046
ag1395
ag1399
ag3085
ag11
ag3136
ag3140
ag3144
ag3148
ag3152
ag3156
ag3170
ag3174
ag3183
ag3187
ag3191
ag3251
ag3255
ag3298
ag3302
ag3306
ag3328
ag3332
ag3350
ag3354
ag3384
ag830
ag3458
ag3462
ag3479
ag3483
ag3496
ag3500
ag684
ag3509
ag3569
ag834
ag3591
ag3622
ag3626
ag3660
ag3664
ag3668
ag3672
ag3681
ag3685
ag1687
ag1691
ag3807
ag4016
ag4038
ag4047
ag4051
ag4055
ag4064
ag4089
ag680
ag4098
ag4284
ag431
ag4335
ag4438
ag4442
ag5494
ag199
ag203
ag486
ag1182
ag929
ag938
ag942
ag696
ag951
ag960
ag964
ag968
ag415
ag981
ag985
ag994
ag998
ag1002
ag1011
ag1015
ag1019
ag1049
ag1053
ag1057
ag1066
ag1070
ag1074
ag1078
ag1087
ag1091
ag1373
ag1377
ag1751
ag1755
ag1759
ag1763
ag692
ag1776
ag1780
ag1801
ag1805
ag1809
ag1826
ag1830
ag1848
ag1852
ag1861
ag1865
ag1874
ag717
ag32
ag838
ag2004
ag2025
ag2046
ag2050
ag2054
ag663
ag667
ag671
ag2012
ag2020
ag2122
ag2246
ag2250
ag2316
ag2320
ag2350
ag2354
ag2363
ag2367
ag2376
ag2380
ag2384
ag2393
ag2423
ag2436
ag2440
ag2475
ag2479
ag850
ag854
ag605
ag2514
ag2523
ag2527
ag629
ag633
ag2549
ag2578
ag2582
ag2586
ag502
ag2608
ag2630
ag2634
ag2638
ag2642
ag2646
ag2650
ag1206
ag2681
ag2707
ag2742
ag2773
ag2777
ag2781
ag2785
ag435
ag2789
ag579
ag583
ag587
ag2917
ag2921
ag2925
ag2955
ag2959
ag2963
ag2967
ag613
ag2971
ag2975
ag2988
ag2992
ag1957
ag3024
ag3028
ag3032
ag650
ag654
ag3072
ag3076
ag3080
ag817
ag821
ag3114
ag3118
ag3122
ag3131
ag3199
ag3203
ag3217
ag3234
ag3238
ag3242
ag3246
ag3272
ag3319
ag3323
ag3540
ag3544
ag3548
ag3552
ag3556
ag3560
ag3564
ag1239
ag3773
ag3777
ag3802
ag3858
ag3974
ag4007
ag4011
ag4029
ag4033
ag4072
ag4076
ag4080
ag4084
ag4116
ag4120
ag4124
ag4146
ag4232
ag4258
ag4267
ag4271
ag4275
ag4279
ag4292
ag4296
ag4305
ag4309
ag4313
ag4317
ag4326
ag4330
ag4429
ag4433
ag5502
ag5506
ag5510
ag5519
ag5523
ag5682
ag5691
ag5695
ag5712
ag5726
ag5730
ag1148
ag1165
ag1169
ag1173
ag1190
ag871
ag1194
ag916
ag920
ag924
ag443
ag447
ag1891
ag1895
ag1904
ag1953
ag1961
ag1999
ag2016
ag2213
ag2217
ag2337
ag2341
ag2345
ag2401
ag2487
ag2561
ag2565
ag2569
ag2573
ag2616
ag2620
ag4
ag2663
ag2672
ag2676
ag2694
ag2698
ag2702
ag506
ag2737
ag56
ag60
ag3097
ag3101
ag3105
ag3109
ag3225
ag3229
ag688
ag3267
ag469
ag3785
ag3789
ag465
ag3793
ag3797
ag3836
ag3840
ag3871
ag3875
ag3879
ag3883
ag3887
ag3891
ag3913
ag3917
ag3926
ag3930
ag3939
ag3943
ag3952
ag3956
ag3965
ag3969
ag3982
ag3986
ag3990
ag3994
ag3998
ag4002
ag4137
ag4141
ag4154
ag4158
ag4177
ag4181
ag4185
ag4194
ag4198
ag4202
ag4206
ag4210
ag4227
ag4253
ag4347
ag4351
ag4355
ag4359
ag4368
ag642
ag4372
ag4386
ag524
ag4395
ag4399
ag4403
ag4407
ag4411
ag4420
ag4424
ag4459
ag4463
ag5231
ag5235
ag5360
ag5364
ag5368
ag5372
ag5376
ag5380
ag5462
ag5484
ag5488
ag5541
ag5545
ag5604
ag44
ag5657
ag5661
ag5665
ag5669
ag5673
ag5677
ag5703
ag5707
ag5743
ag5747
ag5756
ag5791
ag5795
ag5809
ag721
ag5818
ag5822
ag5826
ag1156
ag1160
ag1912
ag1916
ag1920
ag1924
ag1928
ag1932
ag1936
ag1940
ag1944
ag1948
ag1969
ag1276
ag1973
ag1977
ag1981
ag2126
ag2135
ag2139
ag2153
ag2157
ag2174
ag2178
ag2196
ag2205
ag2222
ag801
ag2226
ag2332
ag805
ag1268
ag704
ag708
ag2409
ag2413
ag2417
ag2495
ag2499
ag2503
ag2732
ag3823
ag3827
ag676
ag3831
ag3848
ag3852
ag3899
ag3903
ag1255
ag1259
ag1263
ag532
ag549
ag553
ag4218
ag4222
ag4244
ag4248
ag456
ag460
ag4476
ag859
ag4480
ag4484
ag617
ag5184
ag5188
ag5192
ag5196
ag5200
ag5204
ag5208
ag562
ag566
ag5217
ag5221
ag5248
ag5252
ag5393
ag5397
ag5401
ag5452
ag490
ag5470
ag5474
ag5558
ag5562
ag5566
ag5570
ag5574
ag5578
ag601
ag5582
ag5586
ag5595
ag5599
ag5612
ag5630
ag5634
ag733
ag737
ag5648
ag5652
ag5764
ag5768
ag5782
ag5786
ag1989
ag1993
ag2165
ag2169
ag2191
ag427
ag2723
ag2727
ag540
ag544
ag4497
ag4514
ag4518
ag4816
ag780
ag4820
ag4841
ag5059
ag5068
ag5072
ag621
ag5076
ag5085
ag5089
ag5093
ag5102
ag5106
ag5110
ag5114
ag5128
ag5132
ag5136
ag5140
ag5144
ag5148
ag5265
ag5269
ag5273
ag5277
ag5281
ag5285
ag5294
ag5298
ag5302
ag5306
ag5310
ag5314
ag5318
ag48
ag5332
ag5336
ag5345
ag5349
ag1226
ag1230
ag1234
ag5426
ag5430
ag5434
ag863
ag5438
ag5442
ag867
ag5620
ag4505
ag4509
ag4622
ag4828
ag4832
ag4836
ag4849
ag4853
ag4857
ag4861
ag4870
ag4874
ag4878
ag4882
ag4886
ag4903
ag4912
ag4916
ag4920
ag4924
ag4928
ag5050
ag5054
ag5161
ag5165
ag5169
ag5173
ag1214
ag477
ag481
ag5413
ag5417
ag5421
ag4530
ag4534
ag4538
ag4542
ag4546
ag4576
ag4580
ag4584
ag4588
ag4592
ag4596
ag4600
ag4617
ag4720
ag4724
ag4728
ag4732
ag4736
ag4753
ag4757
ag4761
ag4765
ag4769
ag4773
ag842
ag4777
ag4781
ag4785
ag4789
ag4793
ag4806
ag4810
ag4894
ag4898
ag4936
ag4940
ag1218
ag4944
ag4966
ag4970
ag4974
ag4978
ag4982
ag4986
ag4990
ag4994
ag4998
ag5002
ag5011
ag5015
ag5024
ag5045
ag4554
ag4558
ag4567
ag4571
ag4608
ag4612
ag4634
ag4638
ag4647
ag4651
ag4655
ag4659
ag4663
ag4672
ag4676
ag4680
ag597
ag4689
ag4693
ag4706
ag4710
ag4744
ag4748
ag763
ag767
ag771
ag36
ag4801
ag4957
ag4961
ag5032
ag5036
ag5040
ag4701
ag797
asbag2679
ag1108
ag1154
ag1286
ag4699
ag1150
ag5728
ag4256
ag4320
ag5198
ag1737
ag4299
ag189
ag4888
ag731
ag158
ag1184
ag1519
ag3022
ag4409
ag2822
ag4615
ag4431
ag4009
ag4779
ag2387
ag5229
ag4569
ag2120
ag2444
ag4311
ag127
ag2258
ag5675
ag5697
ag5211
ag1005
ag5263
ag1393
ag2339
ag5535
ag2133
ag4204
ag5126
ag4536
ag5593
ag954
ag893
ag4414
ag5464
ag4265
ag2937
ag3941
ag5395
ag4273
ag1072
ag5186
ag852
ag3825
ag4478
ag3634
ag1224
ag135
ag1971
ag1527
ag1783
ag5543
ag4269
ag1997
ag1541
ag3638
ag819
ag3134
ag4405
ag4653
ag323
ag5680
ag3703
ag945
ag2090
ag3397
ag4087
ag4594
ag1766
ag5304
ag5326
ag2271
ag581
ag5267
ag2525
ag2644
ag5370
ag5646
ag3053
ag298
ag1859
ag327
ag5870
ag5079
ag2949
ag2167
ag4516
ag5772
ag1559
ag4362
ag5642
ag2014
ag1089
ag1411
ag2434
ag193
ag534
ag3972
ag5789
ag5283
ag1017
ag1047
ag1146
ag5096
ag4230
ag1192
ag1787
ag181
ag2990
ag3193
ag5793
ag1188
ag702
ag2754
ag2725
ag332
ag4188
ag3996
ag2818
ag3595
ag5238
ag3521
ag1424
ag3724
ag3107
ag4384
ag1125
ag2357
ag4457
ag2923
ag1926
ag3460
ag3477
ag2978
ag1437
ag5446
ag4401
ag4389
ag2297
ag4156
ag5322
ag365
ag3744
ag2112
ag902
ag5853
ag1380
ag3160
ag4730
ag3683
ag4070
ag4294
ag2864
ag4955
ag4163
ag3740
ag2885
ag4027
ag1707
ag5225
ag175
ag3083
ag3572
ag5614
ag2048
ag4959
ag2873
ag75
ag2382
ag5955
ag958
ag1983
ag3869
ag4864
ag5018
ag4282
ag1095
ag5219
ag5866
ag1445
ag2792
ag4058
ag4242
ag4005
ag2421
ag170
ag344
ag1833
ag1741
ag2137
ag2058
ag1622
ag1681
ag197
ag2194
ag2284
a(i__main__
Node
p5975
(dp5976
g3
Vn00001740
p5977
sg5
I01
sg6
(lp5978
g5915
ag5960
asg7
(lp5979
g5921
ag23
ag27
ag104
ag99
ag5872
ag5876
ag5880
ag270
ag15
ag5953
ag5957
ag94
ag257
ag261
ag142
ag146
ag5939
ag5948
ag5896
ag755
ag3705
ag3714
ag85
ag89
ag156
ag288
ag305
ag309
ag313
ag317
ag321
ag325
ag329
ag338
ag342
ag363
ag367
ag133
ag137
ag5913
ag5900
ag5908
ag1292
ag1301
ag1543
ag1547
ag1556
ag725
ag1591
ag1595
ag3390
ag3394
ag2553
ag3403
ag3412
ag2595
ag3421
ag3515
ag3579
ag3636
ag3640
ag40
ag3691
ag826
ag3695
ag2092
ag3722
ag3726
ag3730
ag5839
ag5843
ag5847
ag5851
ag5855
ag5859
ag5863
ag5889
ag1247
ag151
ag177
ag213
ag222
ag226
ag230
ag247
ag251
ag296
ag300
ag350
ag354
ag358
ag375
ag1309
ag1313
ag1119
ag1123
ag1127
ag1131
ag1322
ag1326
ag1335
ag1356
ag1243
ag1503
ag1538
ag1569
ag1573
ag1577
ag1675
ag1701
ag1718
ag1417
ag2060
ag2064
ag2068
ag2072
ag2076
ag2080
ag2084
ag2088
ag2260
ag2459
ag2748
ag2761
ag2829
ag2833
ag2837
ag1200
ag2841
ag2845
ag2849
ag1272
ag2866
ag3051
ag3055
ag2232
ag3278
ag638
ag3282
ag3286
ag3290
ag3337
ag3359
ag2930
ag3368
ag3372
ag3376
ag494
ag3429
ag3433
ag3437
ag3446
ag3450
ag3467
ag3471
ag3488
ag3523
ag3574
ag2038
ag3601
ag3605
ag3609
ag3631
ag3648
ag3652
ag1210
ag423
ag1696
ag3738
ag3742
ag3746
ag168
ag172
ag208
ag238
ag242
ag388
ag392
ag401
ag405
ag891
ag895
ag904
ag973
ag1024
ag1028
ag1032
ag1036
ag788
ag792
ag742
ag1106
ag1110
ag1114
ag713
ag750
ag1343
ag1347
ag1351
ag1382
ag1404
ag1413
ag1426
ag1430
ag1439
ag1443
ag1447
ag1451
ag1460
ag1464
ag1468
ag1477
ag1481
ag1490
ag1494
ag1498
ag1511
ag1515
ag1529
ag1533
ag1585
ag1612
ag1616
ag1620
ag1624
ag1628
ag1637
ag1641
ag1650
ag1654
ag1658
ag1662
ag1666
ag1670
ag1709
ag1713
ag1726
ag1730
ag1739
ag1743
ag1768
ag1785
ag1789
ag1793
ag1814
ag1818
ag1835
ag1879
ag2030
ag2034
ag609
ag2255
ag2273
ag2277
ag2286
ag2290
ag515
ag519
ag2299
ag2303
ag2428
ag419
ag2450
ag2454
ag2467
ag2532
ag2536
ag1178
ag2591
ag776
ag2756
ag2794
ag2798
ag592
ag2807
ag875
ag809
ag2811
ag2820
ag2824
ag2857
ag2861
ag2879
ag2883
ag2887
ag2891
ag2895
ag2909
ag2980
ag3002
ag3006
ag2943
ag2947
ag2951
ag3042
ag3046
ag1395
ag1399
ag3085
ag11
ag3136
ag3140
ag3144
ag3148
ag3152
ag3156
ag3170
ag3174
ag3183
ag3187
ag3191
ag3251
ag3255
ag3298
ag3302
ag3306
ag3328
ag3332
ag3350
ag3354
ag3384
ag830
ag3458
ag3462
ag3479
ag3483
ag3496
ag3500
ag684
ag3509
ag3569
ag834
ag3591
ag3622
ag3626
ag3660
ag3664
ag3668
ag3672
ag3681
ag3685
ag1687
ag1691
ag3807
ag4016
ag4038
ag4047
ag4051
ag4055
ag4064
ag4089
ag680
ag4098
ag4284
ag431
ag4335
ag4438
ag4442
ag5494
ag199
ag203
ag486
ag1182
ag929
ag938
ag942
ag696
ag951
ag960
ag964
ag968
ag415
ag981
ag985
ag994
ag998
ag1002
ag1011
ag1015
ag1019
ag1049
ag1053
ag1057
ag1066
ag1070
ag1074
ag1078
ag1087
ag1091
ag1373
ag1377
ag1751
ag1755
ag1759
ag1763
ag692
ag1776
ag1780
ag1801
ag1805
ag1809
ag1826
ag1830
ag1848
ag1852
ag1861
ag1865
ag1874
ag717
ag32
ag838
ag2004
ag2025
ag2046
ag2050
ag2054
ag663
ag667
ag671
ag2012
ag2020
ag2122
ag2246
ag2250
ag2316
ag2320
ag2350
ag2354
ag2363
ag2367
ag2376
ag2380
ag2384
ag2393
ag2423
ag2436
ag2440
ag2475
ag2479
ag850
ag854
ag605
ag2514
ag2523
ag2527
ag629
ag633
ag2549
ag2578
ag2582
ag2586
ag502
ag2608
ag2630
ag2634
ag2638
ag2642
ag2646
ag2650
ag1206
ag2681
ag2707
ag2742
ag2773
ag2777
ag2781
ag2785
ag435
ag2789
ag579
ag583
ag587
ag2917
ag2921
ag2925
ag2955
ag2959
ag2963
ag2967
ag613
ag2971
ag2975
ag2988
ag2992
ag1957
ag3024
ag3028
ag3032
ag650
ag654
ag3072
ag3076
ag3080
ag817
ag821
ag3114
ag3118
ag3122
ag3131
ag3199
ag3203
ag3217
ag3234
ag3238
ag3242
ag3246
ag3272
ag3319
ag3323
ag3540
ag3544
ag3548
ag3552
ag3556
ag3560
ag3564
ag1239
ag3773
ag3777
ag3802
ag3858
ag3974
ag4007
ag4011
ag4029
ag4033
ag4072
ag4076
ag4080
ag4084
ag4116
ag4120
ag4124
ag4146
ag4232
ag4258
ag4267
ag4271
ag4275
ag4279
ag4292
ag4296
ag4305
ag4309
ag4313
ag4317
ag4326
ag4330
ag4429
ag4433
ag5502
ag5506
ag5510
ag5519
ag5523
ag5682
ag5691
ag5695
ag5712
ag5726
ag5730
ag1148
ag1165
ag1169
ag1173
ag1190
ag871
ag1194
ag916
ag920
ag924
ag443
ag447
ag1891
ag1895
ag1904
ag1953
ag1961
ag1999
ag2016
ag2213
ag2217
ag2337
ag2341
ag2345
ag2401
ag2487
ag2561
ag2565
ag2569
ag2573
ag2616
ag2620
ag4
ag2663
ag2672
ag2676
ag2694
ag2698
ag2702
ag506
ag2737
ag56
ag60
ag3097
ag3101
ag3105
ag3109
ag3225
ag3229
ag688
ag3267
ag469
ag3785
ag3789
ag465
ag3793
ag3797
ag3836
ag3840
ag3871
ag3875
ag3879
ag3883
ag3887
ag3891
ag3913
ag3917
ag3926
ag3930
ag3939
ag3943
ag3952
ag3956
ag3965
ag3969
ag3982
ag3986
ag3990
ag3994
ag3998
ag4002
ag4137
ag4141
ag4154
ag4158
ag4177
ag4181
ag4185
ag4194
ag4198
ag4202
ag4206
ag4210
ag4227
ag4253
ag4347
ag4351
ag4355
ag4359
ag4368
ag642
ag4372
ag4386
ag524
ag4395
ag4399
ag4403
ag4407
ag4411
ag4420
ag4424
ag4459
ag4463
ag5231
ag5235
ag5360
ag5364
ag5368
ag5372
ag5376
ag5380
ag5462
ag5484
ag5488
ag5541
ag5545
ag5604
ag44
ag5657
ag5661
ag5665
ag5669
ag5673
ag5677
ag5703
ag5707
ag5743
ag5747
ag5756
ag5791
ag5795
ag5809
ag721
ag5818
ag5822
ag5826
ag1156
ag1160
ag1912
ag1916
ag1920
ag1924
ag1928
ag1932
ag1936
ag1940
ag1944
ag1948
ag1969
ag1276
ag1973
ag1977
ag1981
ag2126
ag2135
ag2139
ag2153
ag2157
ag2174
ag2178
ag2196
ag2205
ag2222
ag801
ag2226
ag2332
ag805
ag1268
ag704
ag708
ag2409
ag2413
ag2417
ag2495
ag2499
ag2503
ag2732
ag3823
ag3827
ag676
ag3831
ag3848
ag3852
ag3899
ag3903
ag1255
ag1259
ag1263
ag532
ag549
ag553
ag4218
ag4222
ag4244
ag4248
ag456
ag460
ag4476
ag859
ag4480
ag4484
ag617
ag5184
ag5188
ag5192
ag5196
ag5200
ag5204
ag5208
ag562
ag566
ag5217
ag5221
ag5248
ag5252
ag5393
ag5397
ag5401
ag5452
ag490
ag5470
ag5474
ag5558
ag5562
ag5566
ag5570
ag5574
ag5578
ag601
ag5582
ag5586
ag5595
ag5599
ag5612
ag5630
ag5634
ag733
ag737
ag5648
ag5652
ag5764
ag5768
ag5782
ag5786
ag1989
ag1993
ag2165
ag2169
ag2191
ag427
ag2723
ag2727
ag540
ag544
ag4497
ag4514
ag4518
ag4816
ag780
ag4820
ag4841
ag5059
ag5068
ag5072
ag621
ag5076
ag5085
ag5089
ag5093
ag5102
ag5106
ag5110
ag5114
ag5128
ag5132
ag5136
ag5140
ag5144
ag5148
ag5265
ag5269
ag5273
ag5277
ag5281
ag5285
ag5294
ag5298
ag5302
ag5306
ag5310
ag5314
ag5318
ag48
ag5332
ag5336
ag5345
ag5349
ag1226
ag1230
ag1234
ag5426
ag5430
ag5434
ag863
ag5438
ag5442
ag867
ag5620
ag4505
ag4509
ag4622
ag4828
ag4832
ag4836
ag4849
ag4853
ag4857
ag4861
ag4870
ag4874
ag4878
ag4882
ag4886
ag4903
ag4912
ag4916
ag4920
ag4924
ag4928
ag5050
ag5054
ag5161
ag5165
ag5169
ag5173
ag1214
ag477
ag481
ag5413
ag5417
ag5421
ag4530
ag4534
ag4538
ag4542
ag4546
ag4576
ag4580
ag4584
ag4588
ag4592
ag4596
ag4600
ag4617
ag4720
ag4724
ag4728
ag4732
ag4736
ag4753
ag4757
ag4761
ag4765
ag4769
ag4773
ag842
ag4777
ag4781
ag4785
ag4789
ag4793
ag4806
ag4810
ag4894
ag4898
ag4936
ag4940
ag1218
ag4944
ag4966
ag4970
ag4974
ag4978
ag4982
ag4986
ag4990
ag4994
ag4998
ag5002
ag5011
ag5015
ag5024
ag5045
ag4554
ag4558
ag4567
ag4571
ag4608
ag4612
ag4634
ag4638
ag4647
ag4651
ag4655
ag4659
ag4663
ag4672
ag4676
ag4680
ag597
ag4689
ag4693
ag4706
ag4710
ag4744
ag4748
ag763
ag767
ag771
ag36
ag4801
ag4957
ag4961
ag5032
ag5036
ag5040
ag4701
ag797
asbag2512
ag4049
ag5733
ag2508
ag4826
ag4074
ag5824
ag4892
ag2580
ag4470
ag1158
ag4992
ag1598
ag356
ag3963
ag906
ag4808
ag5932
ag761
ag3465
ag2750
ag2415
ag4996
ag4110
ag2779
ag2457
ag4014
ag2129
ag1228
ag340
ag4552
ag3486
ag4445
ag4976
ag4847
ag5362
ag378
ag3716
ag2147
ag3335
ag315
ag5312
ag2717
ag3292
ag2982
ag2973
ag1618
ag5969
ag3004
ag2628
ag290
ag551
ag4657
ag2919
ag3603
ag5737
ag2124
ag542
ag2965
ag3763
ag2640
ag4212
ag1359
ag382
ag5667
ag3146
ag4988
ag3675
ag5919
ag4906
ag5440
ag4830
ag5745
ag3821
ag3670
ag3950
ag119
ag1914
ag5946
ag149
ag4507
ag2801
ag2461
ag4695
ag2957
ag1930
ag2066
ag5030
ag4708
ag1967
ag395
ag504
ag3767
ag4096
ag1795
ag5741
ag1922
ag2767
ag4315
ag1295
ag4910
ag4964
ag3074
ag1081
ag3838
ag4872
ag4632
ag4427
ag5366
ag2559
ag2078
ag4487
ag3612
ag4192
ag1064
ag1685
ag1583
ag5038
ag3138
ag5883
ag1496
ag2430
ag5816
ag4645
ag3783
ag4670
ag4127
ag3842
ag2224
ag3498
ag4422
ag2155
ag1397
ag2787
ag220
ag2911
ag3567
ag1000
ag3240
ag5292
ag848
ag3829
ag1606
ag3885
ag5496
ag5716
ag5589
ag5070
ag4082
ag5539
ag1060
ag5296
ag2010
ag2438
ag4734
ag5026
ag4561
ag475
ag5663
ag585
ag1648
ag4167
ag4540
ag3901
ag4799
ag5513
ag4839
ag5456
ag2207
ag268
ag983
ag2240
ag1812
ag4220
ag4466
ag4171
ag3330
ag1644
ag4053
ag4208
ag1282
ag1104
ag4726
ag971
ag3044
ag3452
ag4474
ag3321
ag5347
ag2036
ag3530
ag1872
ag1253
ag1807
ag3026
ag2032
ag5118
ag5560
ag790
ag3805
ag5548
ag5492
ag4196
ag2843
ag1009
ag5122
ag5576
ag5083
ag240
ag3304
ag2783
ag5419
ag1290
ag1345
ag2006
ag3708
ag4179
ag3736
ag889
ag3662
ag3440
ag1420
ag5638
ag3946
ag3150
ag2189
ag236
ag4225
ag4532
ag445
ag3897
ag3164
ag1428
ag4606
ag4449
ag3759
ag2330
ag1639
ag5568
ag2610
ag5146
ag3257
ag3288
ag927
ag4755
ag4144
ag369
ag5807
ag3834
ag4687
ag5242
ag3813
ag5151
ag5358
ag4436
ag1085
ag4851
ag2674
ag3666
ag5527
ag4783
ag5460
ag1333
ag102
ag2688
ag3599
ag4357
ag4397
ag1975
ag573
ag282
ag898
ag2584
ag3419
ag232
ag2517
ag1337
ag3219
ag3988
ag1846
ag3366
ag661
ag5942
ag3795
ag4453
ag3856
ag3370
ag1363
ag4200
ag2606
ag5758
ag5556
ag1180
ag3401
ag5610
ag3642
ag2897
ag3980
ag4771
ag4251
ag2746
ag1791
ag5887
ag5671
ag3712
ag1694
ag2730
ag3650
ag1026
ag1885
ag5391
ag2713
ag885
ag2318
ag1733
ag2143
ag5784
ag3197
ag5659
ag3787
ag3850
ag3211
ag2877
ag2961
ag3616
ag3154
ag1039
ag5005
ag58
ag5087
ag3503
ag652
ag2571
ag4353
ag2481
ag988
ag5432
ag5062
ag1774
ag303
ag1303
ag2855
ag3992
ag3431
ag5013
ag2869
ag5339
ag2493
ag627
ag2696
ag2700
ag3915
ag4019
ag1013
ag4914
ag2301
ag5857
ag5597
ag4636
ag3181
ag5288
ag4246
ag4759
ag3087
ag3689
ag5215
ag5354
ag4896
ag2215
ag352
ag5762
ag2996
ag2684
ag4548
ag3317
ag2547
ag4586
ag5701
ag2335
ag2267
ag3751
ag2657
ag2426
ag5606
ag669
ag2632
ag5837
ag2348
ag2176
ag2839
ag1402
ag5066
ag4366
ag4491
ag5424
ag5171
ag3018
ag3261
ag996
ag1112
ag3720
ag4624
ag4528
ag2485
ag5202
ag2763
ag3624
ag4045
ag3249
ag1545
ag25
ag2831
ag1959
ag2220
ag1898
ag2648
ag4066
ag2775
ag1963
ag4628
ag3415
ag140
ag185
ag3444
ag2563
ag4947
ag4620
ag5689
ag206
ag3679
ag5486
ag3423
ag3800
ag2374
ag1129
ag2859
ag962
ag1142
ag1484
ag3517
ag5780
ag1942
ag1660
ag3095
ag2933
ag1117
ag3036
ag3937
ag1820
ag2901
ag441
ag5482
ag3779
ag2002
ag1385
ag4984
ag1652
ag3654
ag4763
ag1375
ag479
ag5233
ag2602
ag1341
ag4843
ag5693
ag2740
ag2052
ag5820
ag4345
ag3374
ag4307
ag631
ag1134
ag2163
ag918
ag4598
ag3967
ag2044
ag4718
ag4324
ag1934
ag4286
ag3357
ag2576
ag1745
ag3924
ag5517
ag278
ag4968
ag1855
ag4678
ag3658
ag1563
ag2203
ag786
ag361
ag4738
ag3236
ag255
ag5308
ag3099
ag4092
ag1938
ag2211
ag3340
ag2692
ag2805
ag2624
ag1816
ag1441
ag5275
ag2614
ag5685
ag5500
ag4041
ag2809
ag3142
ag3646
ag3976
ag2851
ag5138
ag4868
ag881
ag2378
ag4795
ag3049
ag949
ag97
ag201
ag2653
ag144
ag2555
ag3066
ag1471
ag4370
ag3481
ag3933
ag5504
ag5750
ag2116
ag3581
ag107
ag3300
ag3207
ag4114
ag5000
ag2598
ag3378
ag765
ag83
ag4578
ag4349
ag3954
ag2827
ag3775
ag1893
ag4482
ag2391
ag3607
ag1320
ag1799
ag1198
ag4139
ag3791
ag1951
ag4880
ag1946
ag5937
ag4503
ag979
ag5259
ag2539
ag5878
ag4938
ag2263
ag538
ag5833
ag3232
ag2062
ag1778
ag2593
ag3585
ag3253
ag5964
ag3070
ag3280
ag5387
ag1910
ag1536
ag3558
ag4152
ag5316
ag4666
ag5906
ag1579
ag4704
ag264
ag1354
ag2759
ag3091
ag564
ag1462
ag2322
ag5618
ag5403
ag2185
ag1492
ag2023
ag3456
ag2771
ag2889
ag3116
ag4118
ag5104
ag2893
ag3577
ag2666
ag2661
ag4000
ag2618
ag1167
ag3427
ag5468
ag3562
ag2497
ag1030
ag5508
ag1571
ag1449
ag71
ag5194
ag1324
ag665
ag1034
ag3313
ag2395
ag4216
ag2521
ag3265
ag259
ag3348
ag286
ag735
ag5206
ag3168
ag1838
ag5155
ag3473
ag1076
ag4524
ag3382
ag5190
ag2181
ag5108
ag3352
ag4148
ag4544
ag3881
ag4855
ag2986
ag1554
ag1918
ag2551
ag5849
ag3469
ag2452
ag2280
ag4822
ag3861
ag348
ag3309
ag390
ag1589
ag123
ag2370
ag5052
ag3125
ag4495
ag3392
ag2705
ag5074
ag5564
ag2253
ag2108
ag2306
ag319
ag3215
ag4393
ag4930
ag5650
ag2248
ag5330
ag1051
ag706
ag1329
ag3755
ag4934
ag1488
a.